
Hexapod_LegBoard.elf:     file format elf32-avr

Sections:
Idx Name          Size      VMA       LMA       File off  Algn
  0 .data         00000000  00800100  00800100  000049cc  2**0
                  CONTENTS, ALLOC, LOAD, DATA
  1 .text         00004958  00000000  00000000  00000074  2**1
                  CONTENTS, ALLOC, LOAD, READONLY, CODE
  2 .bss          0000013c  00800100  00800100  000049cc  2**0
                  ALLOC
  3 .comment      00000030  00000000  00000000  000049cc  2**0
                  CONTENTS, READONLY
  4 .note.gnu.avr.deviceinfo 00000040  00000000  00000000  000049fc  2**2
                  CONTENTS, READONLY
  5 .debug_aranges 00000040  00000000  00000000  00004a40  2**3
                  CONTENTS, READONLY, DEBUGGING
  6 .debug_info   00000b4d  00000000  00000000  00004a80  2**0
                  CONTENTS, READONLY, DEBUGGING
  7 .debug_abbrev 00000992  00000000  00000000  000055cd  2**0
                  CONTENTS, READONLY, DEBUGGING
  8 .debug_line   000002c9  00000000  00000000  00005f5f  2**0
                  CONTENTS, READONLY, DEBUGGING
  9 .debug_str    00000371  00000000  00000000  00006228  2**0
                  CONTENTS, READONLY, DEBUGGING

Disassembly of section .text:

00000000 <__vectors>:
       0:	0c 94 83 00 	jmp	0x106	; 0x106 <__ctors_end>
       4:	0c 94 a0 00 	jmp	0x140	; 0x140 <__bad_interrupt>
       8:	0c 94 a0 00 	jmp	0x140	; 0x140 <__bad_interrupt>
       c:	0c 94 a0 00 	jmp	0x140	; 0x140 <__bad_interrupt>
      10:	0c 94 a0 00 	jmp	0x140	; 0x140 <__bad_interrupt>
      14:	0c 94 a0 00 	jmp	0x140	; 0x140 <__bad_interrupt>
      18:	0c 94 a0 00 	jmp	0x140	; 0x140 <__bad_interrupt>
      1c:	0c 94 a0 00 	jmp	0x140	; 0x140 <__bad_interrupt>
      20:	0c 94 a0 00 	jmp	0x140	; 0x140 <__bad_interrupt>
      24:	0c 94 a0 00 	jmp	0x140	; 0x140 <__bad_interrupt>
      28:	0c 94 a0 00 	jmp	0x140	; 0x140 <__bad_interrupt>
      2c:	0c 94 a0 00 	jmp	0x140	; 0x140 <__bad_interrupt>
      30:	0c 94 a0 00 	jmp	0x140	; 0x140 <__bad_interrupt>
      34:	0c 94 a0 00 	jmp	0x140	; 0x140 <__bad_interrupt>
      38:	0c 94 a0 00 	jmp	0x140	; 0x140 <__bad_interrupt>
      3c:	0c 94 a0 00 	jmp	0x140	; 0x140 <__bad_interrupt>
      40:	0c 94 a0 00 	jmp	0x140	; 0x140 <__bad_interrupt>
      44:	0c 94 a0 00 	jmp	0x140	; 0x140 <__bad_interrupt>
      48:	0c 94 a0 00 	jmp	0x140	; 0x140 <__bad_interrupt>
      4c:	0c 94 a0 00 	jmp	0x140	; 0x140 <__bad_interrupt>
      50:	0c 94 16 09 	jmp	0x122c	; 0x122c <__vector_20>
      54:	0c 94 a0 00 	jmp	0x140	; 0x140 <__bad_interrupt>
      58:	0c 94 a0 00 	jmp	0x140	; 0x140 <__bad_interrupt>
      5c:	0c 94 a0 00 	jmp	0x140	; 0x140 <__bad_interrupt>
      60:	0c 94 a0 00 	jmp	0x140	; 0x140 <__bad_interrupt>
      64:	0c 94 c4 08 	jmp	0x1188	; 0x1188 <__vector_25>
      68:	0c 94 a0 00 	jmp	0x140	; 0x140 <__bad_interrupt>
      6c:	0c 94 a0 00 	jmp	0x140	; 0x140 <__bad_interrupt>
      70:	0c 94 a0 00 	jmp	0x140	; 0x140 <__bad_interrupt>
      74:	0c 94 09 06 	jmp	0xc12	; 0xc12 <__vector_29>
      78:	0c 94 a0 00 	jmp	0x140	; 0x140 <__bad_interrupt>
      7c:	0c 94 a0 00 	jmp	0x140	; 0x140 <__bad_interrupt>
      80:	0c 94 a0 00 	jmp	0x140	; 0x140 <__bad_interrupt>
      84:	0c 94 a0 00 	jmp	0x140	; 0x140 <__bad_interrupt>
      88:	0c 94 a0 00 	jmp	0x140	; 0x140 <__bad_interrupt>
      8c:	0c 94 a0 00 	jmp	0x140	; 0x140 <__bad_interrupt>
      90:	0c 94 15 0a 	jmp	0x142a	; 0x142a <__vector_36>
      94:	0c 94 a0 00 	jmp	0x140	; 0x140 <__bad_interrupt>
      98:	0c 94 a0 00 	jmp	0x140	; 0x140 <__bad_interrupt>
      9c:	0c 94 a0 00 	jmp	0x140	; 0x140 <__bad_interrupt>
      a0:	0c 94 a0 00 	jmp	0x140	; 0x140 <__bad_interrupt>
      a4:	0c 94 a0 00 	jmp	0x140	; 0x140 <__bad_interrupt>
      a8:	0c 94 a0 00 	jmp	0x140	; 0x140 <__bad_interrupt>
      ac:	d8 01       	movw	r26, r16
      ae:	46 02       	muls	r20, r22
      b0:	cf 01       	movw	r24, r30
      b2:	c6 01       	movw	r24, r12
      b4:	1e 02       	muls	r17, r30
      b6:	46 02       	muls	r20, r22
      b8:	46 02       	muls	r20, r22
      ba:	46 02       	muls	r20, r22
      bc:	46 02       	muls	r20, r22
      be:	46 02       	muls	r20, r22
      c0:	46 02       	muls	r20, r22
      c2:	46 02       	muls	r20, r22
      c4:	46 02       	muls	r20, r22
      c6:	46 02       	muls	r20, r22
      c8:	e7 01       	movw	r28, r14
      ca:	46 02       	muls	r20, r22
      cc:	46 02       	muls	r20, r22
      ce:	27 02       	muls	r18, r23
      d0:	b2 01       	movw	r22, r4
      d2:	90 01       	movw	r18, r0
      d4:	7f 01       	movw	r14, r30
      d6:	b6 06       	cpc	r11, r22
      d8:	bd 06       	cpc	r11, r29
      da:	c4 06       	cpc	r12, r20
      dc:	cd 06       	cpc	r12, r29
      de:	d4 06       	cpc	r13, r20
      e0:	dd 06       	cpc	r13, r29
      e2:	ae 06       	cpc	r10, r30
      e4:	e6 06       	cpc	r14, r22
      e6:	e7 07       	cpc	r30, r23
      e8:	e7 07       	cpc	r30, r23
      ea:	da 07       	cpc	r29, r26
      ec:	cc 07       	cpc	r28, r28
      ee:	bb 07       	cpc	r27, r27
      f0:	a1 07       	cpc	r26, r17
      f2:	ec 07       	cpc	r30, r28
      f4:	8c 08       	sbc	r8, r12
      f6:	7f 08       	sbc	r7, r15
      f8:	6e 08       	sbc	r6, r14
      fa:	4c 08       	sbc	r4, r12
      fc:	44 08       	sbc	r4, r4
      fe:	2c 08       	sbc	r2, r12
     100:	f5 07       	cpc	r31, r21
     102:	1e 08       	sbc	r1, r14

00000104 <__ctors_start>:
     104:	c9 05       	cpc	r28, r9

00000106 <__ctors_end>:
     106:	11 24       	eor	r1, r1
     108:	1f be       	out	0x3f, r1	; 63
     10a:	cf ef       	ldi	r28, 0xFF	; 255
     10c:	da e0       	ldi	r29, 0x0A	; 10
     10e:	de bf       	out	0x3e, r29	; 62
     110:	cd bf       	out	0x3d, r28	; 61

00000112 <__do_clear_bss>:
     112:	22 e0       	ldi	r18, 0x02	; 2
     114:	a0 e0       	ldi	r26, 0x00	; 0
     116:	b1 e0       	ldi	r27, 0x01	; 1
     118:	01 c0       	rjmp	.+2      	; 0x11c <.do_clear_bss_start>

0000011a <.do_clear_bss_loop>:
     11a:	1d 92       	st	X+, r1

0000011c <.do_clear_bss_start>:
     11c:	ac 33       	cpi	r26, 0x3C	; 60
     11e:	b2 07       	cpc	r27, r18
     120:	e1 f7       	brne	.-8      	; 0x11a <.do_clear_bss_loop>

00000122 <__do_global_ctors>:
     122:	10 e0       	ldi	r17, 0x00	; 0
     124:	c3 e8       	ldi	r28, 0x83	; 131
     126:	d0 e0       	ldi	r29, 0x00	; 0
     128:	04 c0       	rjmp	.+8      	; 0x132 <__do_global_ctors+0x10>
     12a:	21 97       	sbiw	r28, 0x01	; 1
     12c:	fe 01       	movw	r30, r28
     12e:	0e 94 68 24 	call	0x48d0	; 0x48d0 <__tablejump2__>
     132:	c2 38       	cpi	r28, 0x82	; 130
     134:	d1 07       	cpc	r29, r17
     136:	c9 f7       	brne	.-14     	; 0x12a <__do_global_ctors+0x8>
     138:	0e 94 cb 03 	call	0x796	; 0x796 <main>
     13c:	0c 94 aa 24 	jmp	0x4954	; 0x4954 <_exit>

00000140 <__bad_interrupt>:
     140:	0c 94 00 00 	jmp	0	; 0x0 <__vectors>

00000144 <_Z12callbackReadRKhPS_>:
     144:	cf 93       	push	r28
     146:	df 93       	push	r29
     148:	1f 92       	push	r1
     14a:	cd b7       	in	r28, 0x3d	; 61
     14c:	de b7       	in	r29, 0x3e	; 62
     14e:	fc 01       	movw	r30, r24
     150:	80 81       	ld	r24, Z
     152:	82 30       	cpi	r24, 0x02	; 2
     154:	50 f0       	brcs	.+20     	; 0x16a <_Z12callbackReadRKhPS_+0x26>
     156:	fb 01       	movw	r30, r22
     158:	20 81       	ld	r18, Z
     15a:	30 e0       	ldi	r19, 0x00	; 0
     15c:	81 81       	ldd	r24, Z+1	; 0x01
     15e:	a9 01       	movw	r20, r18
     160:	48 0f       	add	r20, r24
     162:	51 1d       	adc	r21, r1
     164:	46 31       	cpi	r20, 0x16	; 22
     166:	51 05       	cpc	r21, r1
     168:	24 f0       	brlt	.+8      	; 0x172 <_Z12callbackReadRKhPS_+0x2e>
     16a:	0f 90       	pop	r0
     16c:	df 91       	pop	r29
     16e:	cf 91       	pop	r28
     170:	08 95       	ret
     172:	87 e0       	ldi	r24, 0x07	; 7
     174:	89 83       	std	Y+1, r24	; 0x01
     176:	25 5e       	subi	r18, 0xE5	; 229
     178:	3e 4f       	sbci	r19, 0xFE	; 254
     17a:	ab 01       	movw	r20, r22
     17c:	4f 5f       	subi	r20, 0xFF	; 255
     17e:	5f 4f       	sbci	r21, 0xFF	; 255
     180:	be 01       	movw	r22, r28
     182:	6f 5f       	subi	r22, 0xFF	; 255
     184:	7f 4f       	sbci	r23, 0xFF	; 255
     186:	8c e8       	ldi	r24, 0x8C	; 140
     188:	91 e0       	ldi	r25, 0x01	; 1
     18a:	0e 94 ed 06 	call	0xdda	; 0xdda <_ZN7Network12sendRegisterERKhS1_PS0_>
     18e:	0f 90       	pop	r0
     190:	df 91       	pop	r29
     192:	cf 91       	pop	r28
     194:	08 95       	ret

00000196 <_Z14callbackActionRKhPS_>:
     196:	10 92 06 01 	sts	0x0106, r1	; 0x800106 <framecounter+0x1>
     19a:	10 92 05 01 	sts	0x0105, r1	; 0x800105 <framecounter>
     19e:	8c e8       	ldi	r24, 0x8C	; 140
     1a0:	91 e0       	ldi	r25, 0x01	; 1
     1a2:	0c 94 c0 08 	jmp	0x1180	; 0x1180 <_ZN7Network5clearEv>

000001a6 <_Z21callbackAutocalibrateRKhPS_>:
     1a6:	ef 92       	push	r14
     1a8:	ff 92       	push	r15
     1aa:	1f 93       	push	r17
     1ac:	cf 93       	push	r28
     1ae:	df 93       	push	r29
     1b0:	00 d0       	rcall	.+0      	; 0x1b2 <_Z21callbackAutocalibrateRKhPS_+0xc>
     1b2:	cd b7       	in	r28, 0x3d	; 61
     1b4:	de b7       	in	r29, 0x3e	; 62
     1b6:	e1 2c       	mov	r14, r1
     1b8:	f1 2c       	mov	r15, r1
     1ba:	10 e0       	ldi	r17, 0x00	; 0
     1bc:	03 c0       	rjmp	.+6      	; 0x1c4 <_Z21callbackAutocalibrateRKhPS_+0x1e>
     1be:	a8 95       	wdr
     1c0:	10 31       	cpi	r17, 0x10	; 16
     1c2:	80 f4       	brcc	.+32     	; 0x1e4 <_Z21callbackAutocalibrateRKhPS_+0x3e>
     1c4:	80 e8       	ldi	r24, 0x80	; 128
     1c6:	91 e0       	ldi	r25, 0x01	; 1
     1c8:	0e 94 06 06 	call	0xc0c	; 0xc0c <_ZN6Analog10getUpdatesEv>
     1cc:	80 ff       	sbrs	r24, 0
     1ce:	f7 cf       	rjmp	.-18     	; 0x1be <_Z21callbackAutocalibrateRKhPS_+0x18>
     1d0:	80 e8       	ldi	r24, 0x80	; 128
     1d2:	91 e0       	ldi	r25, 0x01	; 1
     1d4:	0e 94 f1 05 	call	0xbe2	; 0xbe2 <_ZN6Analog8getForceEv>
     1d8:	e8 0e       	add	r14, r24
     1da:	f9 1e       	adc	r15, r25
     1dc:	1f 5f       	subi	r17, 0xFF	; 255
     1de:	a8 95       	wdr
     1e0:	10 31       	cpi	r17, 0x10	; 16
     1e2:	80 f3       	brcs	.-32     	; 0x1c4 <_Z21callbackAutocalibrateRKhPS_+0x1e>
     1e4:	f2 94       	swap	r15
     1e6:	e2 94       	swap	r14
     1e8:	8f e0       	ldi	r24, 0x0F	; 15
     1ea:	e8 22       	and	r14, r24
     1ec:	ef 24       	eor	r14, r15
     1ee:	f8 22       	and	r15, r24
     1f0:	ef 24       	eor	r14, r15
     1f2:	84 e1       	ldi	r24, 0x14	; 20
     1f4:	e8 0e       	add	r14, r24
     1f6:	f1 1c       	adc	r15, r1
     1f8:	f0 92 2e 01 	sts	0x012E, r15	; 0x80012e <registerMap+0x13>
     1fc:	e0 92 2f 01 	sts	0x012F, r14	; 0x80012f <registerMap+0x14>
     200:	6f 2d       	mov	r22, r15
     202:	85 e0       	ldi	r24, 0x05	; 5
     204:	90 e0       	ldi	r25, 0x00	; 0
     206:	0e 94 98 24 	call	0x4930	; 0x4930 <eeprom_update_byte>
     20a:	60 91 2f 01 	lds	r22, 0x012F	; 0x80012f <registerMap+0x14>
     20e:	86 e0       	ldi	r24, 0x06	; 6
     210:	90 e0       	ldi	r25, 0x00	; 0
     212:	0e 94 98 24 	call	0x4930	; 0x4930 <eeprom_update_byte>
     216:	10 92 2c 01 	sts	0x012C, r1	; 0x80012c <registerMap+0x11>
     21a:	8c e3       	ldi	r24, 0x3C	; 60
     21c:	80 93 2d 01 	sts	0x012D, r24	; 0x80012d <registerMap+0x12>
     220:	60 e0       	ldi	r22, 0x00	; 0
     222:	83 e0       	ldi	r24, 0x03	; 3
     224:	90 e0       	ldi	r25, 0x00	; 0
     226:	0e 94 98 24 	call	0x4930	; 0x4930 <eeprom_update_byte>
     22a:	60 91 2d 01 	lds	r22, 0x012D	; 0x80012d <registerMap+0x12>
     22e:	84 e0       	ldi	r24, 0x04	; 4
     230:	90 e0       	ldi	r25, 0x00	; 0
     232:	0e 94 98 24 	call	0x4930	; 0x4930 <eeprom_update_byte>
     236:	8f ef       	ldi	r24, 0xFF	; 255
     238:	89 83       	std	Y+1, r24	; 0x01
     23a:	be 01       	movw	r22, r28
     23c:	6f 5f       	subi	r22, 0xFF	; 255
     23e:	7f 4f       	sbci	r23, 0xFF	; 255
     240:	8c e8       	ldi	r24, 0x8C	; 140
     242:	91 e0       	ldi	r25, 0x01	; 1
     244:	0e 94 ab 08 	call	0x1156	; 0x1156 <_ZN7Network12isPersonalIdERKh>
     248:	88 23       	and	r24, r24
     24a:	79 f0       	breq	.+30     	; 0x26a <_Z21callbackAutocalibrateRKhPS_+0xc4>
     24c:	19 82       	std	Y+1, r1	; 0x01
     24e:	87 e0       	ldi	r24, 0x07	; 7
     250:	8a 83       	std	Y+2, r24	; 0x02
     252:	20 e0       	ldi	r18, 0x00	; 0
     254:	30 e0       	ldi	r19, 0x00	; 0
     256:	ae 01       	movw	r20, r28
     258:	4f 5f       	subi	r20, 0xFF	; 255
     25a:	5f 4f       	sbci	r21, 0xFF	; 255
     25c:	be 01       	movw	r22, r28
     25e:	6e 5f       	subi	r22, 0xFE	; 254
     260:	7f 4f       	sbci	r23, 0xFF	; 255
     262:	8c e8       	ldi	r24, 0x8C	; 140
     264:	91 e0       	ldi	r25, 0x01	; 1
     266:	0e 94 ed 06 	call	0xdda	; 0xdda <_ZN7Network12sendRegisterERKhS1_PS0_>
     26a:	0f 90       	pop	r0
     26c:	0f 90       	pop	r0
     26e:	df 91       	pop	r29
     270:	cf 91       	pop	r28
     272:	1f 91       	pop	r17
     274:	ff 90       	pop	r15
     276:	ef 90       	pop	r14
     278:	08 95       	ret

0000027a <_Z13callbackWriteRKhPS_>:
     27a:	cf 92       	push	r12
     27c:	df 92       	push	r13
     27e:	ef 92       	push	r14
     280:	ff 92       	push	r15
     282:	0f 93       	push	r16
     284:	1f 93       	push	r17
     286:	cf 93       	push	r28
     288:	df 93       	push	r29
     28a:	00 d0       	rcall	.+0      	; 0x28c <_Z13callbackWriteRKhPS_+0x12>
     28c:	cd b7       	in	r28, 0x3d	; 61
     28e:	de b7       	in	r29, 0x3e	; 62
     290:	dc 01       	movw	r26, r24
     292:	2c 91       	ld	r18, X
     294:	22 30       	cpi	r18, 0x02	; 2
     296:	a8 f0       	brcs	.+42     	; 0x2c2 <_Z13callbackWriteRKhPS_+0x48>
     298:	8b 01       	movw	r16, r22
     29a:	7c 01       	movw	r14, r24
     29c:	db 01       	movw	r26, r22
     29e:	ec 91       	ld	r30, X
     2a0:	4e 2f       	mov	r20, r30
     2a2:	50 e0       	ldi	r21, 0x00	; 0
     2a4:	45 31       	cpi	r20, 0x15	; 21
     2a6:	51 05       	cpc	r21, r1
     2a8:	b8 f0       	brcs	.+46     	; 0x2d8 <_Z13callbackWriteRKhPS_+0x5e>
     2aa:	fe 01       	movw	r30, r28
     2ac:	31 96       	adiw	r30, 0x01	; 1
     2ae:	7f 01       	movw	r14, r30
     2b0:	8f ef       	ldi	r24, 0xFF	; 255
     2b2:	89 83       	std	Y+1, r24	; 0x01
     2b4:	b7 01       	movw	r22, r14
     2b6:	8c e8       	ldi	r24, 0x8C	; 140
     2b8:	91 e0       	ldi	r25, 0x01	; 1
     2ba:	0e 94 ab 08 	call	0x1156	; 0x1156 <_ZN7Network12isPersonalIdERKh>
     2be:	81 11       	cpse	r24, r1
     2c0:	10 c0       	rjmp	.+32     	; 0x2e2 <_Z13callbackWriteRKhPS_+0x68>
     2c2:	0f 90       	pop	r0
     2c4:	0f 90       	pop	r0
     2c6:	df 91       	pop	r29
     2c8:	cf 91       	pop	r28
     2ca:	1f 91       	pop	r17
     2cc:	0f 91       	pop	r16
     2ce:	ff 90       	pop	r15
     2d0:	ef 90       	pop	r14
     2d2:	df 90       	pop	r13
     2d4:	cf 90       	pop	r12
     2d6:	08 95       	ret
     2d8:	fa 01       	movw	r30, r20
     2da:	ea 5a       	subi	r30, 0xAA	; 170
     2dc:	ff 4f       	sbci	r31, 0xFF	; 255
     2de:	0c 94 68 24 	jmp	0x48d0	; 0x48d0 <__tablejump2__>
     2e2:	19 82       	std	Y+1, r1	; 0x01
     2e4:	87 e0       	ldi	r24, 0x07	; 7
     2e6:	8a 83       	std	Y+2, r24	; 0x02
     2e8:	20 e0       	ldi	r18, 0x00	; 0
     2ea:	30 e0       	ldi	r19, 0x00	; 0
     2ec:	a7 01       	movw	r20, r14
     2ee:	be 01       	movw	r22, r28
     2f0:	6e 5f       	subi	r22, 0xFE	; 254
     2f2:	7f 4f       	sbci	r23, 0xFF	; 255
     2f4:	8c e8       	ldi	r24, 0x8C	; 140
     2f6:	91 e0       	ldi	r25, 0x01	; 1
     2f8:	0e 94 ed 06 	call	0xdda	; 0xdda <_ZN7Network12sendRegisterERKhS1_PS0_>
     2fc:	e2 cf       	rjmp	.-60     	; 0x2c2 <_Z13callbackWriteRKhPS_+0x48>
     2fe:	db 01       	movw	r26, r22
     300:	11 96       	adiw	r26, 0x01	; 1
     302:	8c 91       	ld	r24, X
     304:	80 93 2f 01 	sts	0x012F, r24	; 0x80012f <registerMap+0x14>
     308:	80 91 1b 01 	lds	r24, 0x011B	; 0x80011b <registerMap>
     30c:	87 fd       	sbrc	r24, 7
     30e:	cd cf       	rjmp	.-102    	; 0x2aa <_Z13callbackWriteRKhPS_+0x30>
     310:	db 01       	movw	r26, r22
     312:	11 96       	adiw	r26, 0x01	; 1
     314:	6c 91       	ld	r22, X
     316:	86 e0       	ldi	r24, 0x06	; 6
     318:	90 e0       	ldi	r25, 0x00	; 0
     31a:	0e 94 98 24 	call	0x4930	; 0x4930 <eeprom_update_byte>
     31e:	c5 cf       	rjmp	.-118    	; 0x2aa <_Z13callbackWriteRKhPS_+0x30>
     320:	db 01       	movw	r26, r22
     322:	11 96       	adiw	r26, 0x01	; 1
     324:	8c 91       	ld	r24, X
     326:	11 97       	sbiw	r26, 0x01	; 1
     328:	80 93 2e 01 	sts	0x012E, r24	; 0x80012e <registerMap+0x13>
     32c:	80 91 1b 01 	lds	r24, 0x011B	; 0x80011b <registerMap>
     330:	87 fd       	sbrc	r24, 7
     332:	06 c0       	rjmp	.+12     	; 0x340 <_Z13callbackWriteRKhPS_+0xc6>
     334:	11 96       	adiw	r26, 0x01	; 1
     336:	6c 91       	ld	r22, X
     338:	85 e0       	ldi	r24, 0x05	; 5
     33a:	90 e0       	ldi	r25, 0x00	; 0
     33c:	0e 94 98 24 	call	0x4930	; 0x4930 <eeprom_update_byte>
     340:	f7 01       	movw	r30, r14
     342:	80 81       	ld	r24, Z
     344:	83 30       	cpi	r24, 0x03	; 3
     346:	08 f4       	brcc	.+2      	; 0x34a <_Z13callbackWriteRKhPS_+0xd0>
     348:	a1 c0       	rjmp	.+322    	; 0x48c <__LOCK_REGION_LENGTH__+0x8c>
     34a:	d8 01       	movw	r26, r16
     34c:	12 96       	adiw	r26, 0x02	; 2
     34e:	8c 91       	ld	r24, X
     350:	80 93 2f 01 	sts	0x012F, r24	; 0x80012f <registerMap+0x14>
     354:	80 91 1b 01 	lds	r24, 0x011B	; 0x80011b <registerMap>
     358:	87 fd       	sbrc	r24, 7
     35a:	a7 cf       	rjmp	.-178    	; 0x2aa <_Z13callbackWriteRKhPS_+0x30>
     35c:	d8 01       	movw	r26, r16
     35e:	12 96       	adiw	r26, 0x02	; 2
     360:	6c 91       	ld	r22, X
     362:	d9 cf       	rjmp	.-78     	; 0x316 <_Z13callbackWriteRKhPS_+0x9c>
     364:	db 01       	movw	r26, r22
     366:	11 96       	adiw	r26, 0x01	; 1
     368:	8c 91       	ld	r24, X
     36a:	80 93 2d 01 	sts	0x012D, r24	; 0x80012d <registerMap+0x12>
     36e:	80 91 1b 01 	lds	r24, 0x011B	; 0x80011b <registerMap>
     372:	87 fd       	sbrc	r24, 7
     374:	9a cf       	rjmp	.-204    	; 0x2aa <_Z13callbackWriteRKhPS_+0x30>
     376:	db 01       	movw	r26, r22
     378:	11 96       	adiw	r26, 0x01	; 1
     37a:	6c 91       	ld	r22, X
     37c:	84 e0       	ldi	r24, 0x04	; 4
     37e:	90 e0       	ldi	r25, 0x00	; 0
     380:	0e 94 98 24 	call	0x4930	; 0x4930 <eeprom_update_byte>
     384:	fe 01       	movw	r30, r28
     386:	31 96       	adiw	r30, 0x01	; 1
     388:	7f 01       	movw	r14, r30
     38a:	92 cf       	rjmp	.-220    	; 0x2b0 <_Z13callbackWriteRKhPS_+0x36>
     38c:	db 01       	movw	r26, r22
     38e:	11 96       	adiw	r26, 0x01	; 1
     390:	8c 91       	ld	r24, X
     392:	80 93 1e 01 	sts	0x011E, r24	; 0x80011e <registerMap+0x3>
     396:	fe 01       	movw	r30, r28
     398:	31 96       	adiw	r30, 0x01	; 1
     39a:	7f 01       	movw	r14, r30
     39c:	89 cf       	rjmp	.-238    	; 0x2b0 <_Z13callbackWriteRKhPS_+0x36>
     39e:	db 01       	movw	r26, r22
     3a0:	11 96       	adiw	r26, 0x01	; 1
     3a2:	8c 91       	ld	r24, X
     3a4:	80 93 1d 01 	sts	0x011D, r24	; 0x80011d <registerMap+0x2>
     3a8:	fe 01       	movw	r30, r28
     3aa:	31 96       	adiw	r30, 0x01	; 1
     3ac:	7f 01       	movw	r14, r30
     3ae:	80 cf       	rjmp	.-256    	; 0x2b0 <_Z13callbackWriteRKhPS_+0x36>
     3b0:	80 91 1b 01 	lds	r24, 0x011B	; 0x80011b <registerMap>
     3b4:	98 2f       	mov	r25, r24
     3b6:	9c 77       	andi	r25, 0x7C	; 124
     3b8:	db 01       	movw	r26, r22
     3ba:	11 96       	adiw	r26, 0x01	; 1
     3bc:	8c 91       	ld	r24, X
     3be:	83 78       	andi	r24, 0x83	; 131
     3c0:	89 2b       	or	r24, r25
     3c2:	80 93 1b 01 	sts	0x011B, r24	; 0x80011b <registerMap>
     3c6:	fe 01       	movw	r30, r28
     3c8:	31 96       	adiw	r30, 0x01	; 1
     3ca:	7f 01       	movw	r14, r30
     3cc:	71 cf       	rjmp	.-286    	; 0x2b0 <_Z13callbackWriteRKhPS_+0x36>
     3ce:	6b 01       	movw	r12, r22
     3d0:	ff ef       	ldi	r31, 0xFF	; 255
     3d2:	cf 1a       	sub	r12, r31
     3d4:	df 0a       	sbc	r13, r31
     3d6:	b6 01       	movw	r22, r12
     3d8:	8c e8       	ldi	r24, 0x8C	; 140
     3da:	91 e0       	ldi	r25, 0x01	; 1
     3dc:	0e 94 ab 08 	call	0x1156	; 0x1156 <_ZN7Network12isPersonalIdERKh>
     3e0:	81 11       	cpse	r24, r1
     3e2:	54 c0       	rjmp	.+168    	; 0x48c <__LOCK_REGION_LENGTH__+0x8c>
     3e4:	d8 01       	movw	r26, r16
     3e6:	11 96       	adiw	r26, 0x01	; 1
     3e8:	8c 91       	ld	r24, X
     3ea:	8e 3f       	cpi	r24, 0xFE	; 254
     3ec:	09 f4       	brne	.+2      	; 0x3f0 <_Z13callbackWriteRKhPS_+0x176>
     3ee:	5d cf       	rjmp	.-326    	; 0x2aa <_Z13callbackWriteRKhPS_+0x30>
     3f0:	19 82       	std	Y+1, r1	; 0x01
     3f2:	87 e0       	ldi	r24, 0x07	; 7
     3f4:	8a 83       	std	Y+2, r24	; 0x02
     3f6:	20 e0       	ldi	r18, 0x00	; 0
     3f8:	30 e0       	ldi	r19, 0x00	; 0
     3fa:	ce 01       	movw	r24, r28
     3fc:	01 96       	adiw	r24, 0x01	; 1
     3fe:	7c 01       	movw	r14, r24
     400:	ac 01       	movw	r20, r24
     402:	be 01       	movw	r22, r28
     404:	6e 5f       	subi	r22, 0xFE	; 254
     406:	7f 4f       	sbci	r23, 0xFF	; 255
     408:	8c e8       	ldi	r24, 0x8C	; 140
     40a:	91 e0       	ldi	r25, 0x01	; 1
     40c:	0e 94 ed 06 	call	0xdda	; 0xdda <_ZN7Network12sendRegisterERKhS1_PS0_>
     410:	d8 01       	movw	r26, r16
     412:	11 96       	adiw	r26, 0x01	; 1
     414:	8c 91       	ld	r24, X
     416:	80 93 29 01 	sts	0x0129, r24	; 0x800129 <registerMap+0xe>
     41a:	b6 01       	movw	r22, r12
     41c:	8c e8       	ldi	r24, 0x8C	; 140
     41e:	91 e0       	ldi	r25, 0x01	; 1
     420:	0e 94 bb 08 	call	0x1176	; 0x1176 <_ZN7Network5setIdERKh>
     424:	80 91 1b 01 	lds	r24, 0x011B	; 0x80011b <registerMap>
     428:	87 fd       	sbrc	r24, 7
     42a:	42 cf       	rjmp	.-380    	; 0x2b0 <_Z13callbackWriteRKhPS_+0x36>
     42c:	d8 01       	movw	r26, r16
     42e:	11 96       	adiw	r26, 0x01	; 1
     430:	6c 91       	ld	r22, X
     432:	80 e0       	ldi	r24, 0x00	; 0
     434:	90 e0       	ldi	r25, 0x00	; 0
     436:	0e 94 98 24 	call	0x4930	; 0x4930 <eeprom_update_byte>
     43a:	3a cf       	rjmp	.-396    	; 0x2b0 <_Z13callbackWriteRKhPS_+0x36>
     43c:	db 01       	movw	r26, r22
     43e:	11 96       	adiw	r26, 0x01	; 1
     440:	8c 91       	ld	r24, X
     442:	80 93 1f 01 	sts	0x011F, r24	; 0x80011f <registerMap+0x4>
     446:	fe 01       	movw	r30, r28
     448:	31 96       	adiw	r30, 0x01	; 1
     44a:	7f 01       	movw	r14, r30
     44c:	31 cf       	rjmp	.-414    	; 0x2b0 <_Z13callbackWriteRKhPS_+0x36>
     44e:	fb 01       	movw	r30, r22
     450:	81 81       	ldd	r24, Z+1	; 0x01
     452:	80 93 2c 01 	sts	0x012C, r24	; 0x80012c <registerMap+0x11>
     456:	80 91 1b 01 	lds	r24, 0x011B	; 0x80011b <registerMap>
     45a:	87 fd       	sbrc	r24, 7
     45c:	05 c0       	rjmp	.+10     	; 0x468 <__LOCK_REGION_LENGTH__+0x68>
     45e:	61 81       	ldd	r22, Z+1	; 0x01
     460:	83 e0       	ldi	r24, 0x03	; 3
     462:	90 e0       	ldi	r25, 0x00	; 0
     464:	0e 94 98 24 	call	0x4930	; 0x4930 <eeprom_update_byte>
     468:	d7 01       	movw	r26, r14
     46a:	8c 91       	ld	r24, X
     46c:	83 30       	cpi	r24, 0x03	; 3
     46e:	08 f4       	brcc	.+2      	; 0x472 <__LOCK_REGION_LENGTH__+0x72>
     470:	1c cf       	rjmp	.-456    	; 0x2aa <_Z13callbackWriteRKhPS_+0x30>
     472:	d8 01       	movw	r26, r16
     474:	12 96       	adiw	r26, 0x02	; 2
     476:	8c 91       	ld	r24, X
     478:	80 93 2d 01 	sts	0x012D, r24	; 0x80012d <registerMap+0x12>
     47c:	80 91 1b 01 	lds	r24, 0x011B	; 0x80011b <registerMap>
     480:	87 fd       	sbrc	r24, 7
     482:	13 cf       	rjmp	.-474    	; 0x2aa <_Z13callbackWriteRKhPS_+0x30>
     484:	d8 01       	movw	r26, r16
     486:	12 96       	adiw	r26, 0x02	; 2
     488:	6c 91       	ld	r22, X
     48a:	78 cf       	rjmp	.-272    	; 0x37c <_Z13callbackWriteRKhPS_+0x102>
     48c:	ce 01       	movw	r24, r28
     48e:	01 96       	adiw	r24, 0x01	; 1
     490:	7c 01       	movw	r14, r24
     492:	0e cf       	rjmp	.-484    	; 0x2b0 <_Z13callbackWriteRKhPS_+0x36>

00000494 <_Z5setupv>:
     494:	1f 93       	push	r17
     496:	cf 93       	push	r28
     498:	df 93       	push	r29
     49a:	1f 92       	push	r1
     49c:	cd b7       	in	r28, 0x3d	; 61
     49e:	de b7       	in	r29, 0x3e	; 62
     4a0:	61 e0       	ldi	r22, 0x01	; 1
     4a2:	81 e0       	ldi	r24, 0x01	; 1
     4a4:	90 e0       	ldi	r25, 0x00	; 0
     4a6:	0e 94 98 24 	call	0x4930	; 0x4930 <eeprom_update_byte>
     4aa:	63 e0       	ldi	r22, 0x03	; 3
     4ac:	82 e0       	ldi	r24, 0x02	; 2
     4ae:	90 e0       	ldi	r25, 0x00	; 0
     4b0:	0e 94 98 24 	call	0x4930	; 0x4930 <eeprom_update_byte>
     4b4:	80 91 88 01 	lds	r24, 0x0188	; 0x800188 <TIME>
     4b8:	90 91 89 01 	lds	r25, 0x0189	; 0x800189 <TIME+0x1>
     4bc:	a0 91 8a 01 	lds	r26, 0x018A	; 0x80018a <TIME+0x2>
     4c0:	b0 91 8b 01 	lds	r27, 0x018B	; 0x80018b <TIME+0x3>
     4c4:	80 93 07 01 	sts	0x0107, r24	; 0x800107 <start>
     4c8:	90 93 08 01 	sts	0x0108, r25	; 0x800108 <start+0x1>
     4cc:	a0 93 09 01 	sts	0x0109, r26	; 0x800109 <start+0x2>
     4d0:	b0 93 0a 01 	sts	0x010A, r27	; 0x80010a <start+0x3>
     4d4:	85 b1       	in	r24, 0x05	; 5
     4d6:	80 6e       	ori	r24, 0xE0	; 224
     4d8:	85 b9       	out	0x05, r24	; 5
     4da:	84 b1       	in	r24, 0x04	; 4
     4dc:	80 6e       	ori	r24, 0xE0	; 224
     4de:	84 b9       	out	0x04, r24	; 4
     4e0:	82 e3       	ldi	r24, 0x32	; 50
     4e2:	80 93 1d 01 	sts	0x011D, r24	; 0x80011d <registerMap+0x2>
     4e6:	10 92 1e 01 	sts	0x011E, r1	; 0x80011e <registerMap+0x3>
     4ea:	10 92 1f 01 	sts	0x011F, r1	; 0x80011f <registerMap+0x4>
     4ee:	87 ee       	ldi	r24, 0xE7	; 231
     4f0:	94 e0       	ldi	r25, 0x04	; 4
     4f2:	90 93 89 00 	sts	0x0089, r25	; 0x800089 <__TEXT_REGION_LENGTH__+0x7e0089>
     4f6:	80 93 88 00 	sts	0x0088, r24	; 0x800088 <__TEXT_REGION_LENGTH__+0x7e0088>
     4fa:	90 93 8b 00 	sts	0x008B, r25	; 0x80008b <__TEXT_REGION_LENGTH__+0x7e008b>
     4fe:	80 93 8a 00 	sts	0x008A, r24	; 0x80008a <__TEXT_REGION_LENGTH__+0x7e008a>
     502:	90 93 8d 00 	sts	0x008D, r25	; 0x80008d <__TEXT_REGION_LENGTH__+0x7e008d>
     506:	80 93 8c 00 	sts	0x008C, r24	; 0x80008c <__TEXT_REGION_LENGTH__+0x7e008c>
     50a:	80 e8       	ldi	r24, 0x80	; 128
     50c:	80 93 1b 01 	sts	0x011B, r24	; 0x80011b <registerMap>
     510:	80 e0       	ldi	r24, 0x00	; 0
     512:	90 e0       	ldi	r25, 0x00	; 0
     514:	0e 94 90 24 	call	0x4920	; 0x4920 <eeprom_read_byte>
     518:	18 2f       	mov	r17, r24
     51a:	80 93 29 01 	sts	0x0129, r24	; 0x800129 <registerMap+0xe>
     51e:	81 e0       	ldi	r24, 0x01	; 1
     520:	90 e0       	ldi	r25, 0x00	; 0
     522:	0e 94 90 24 	call	0x4920	; 0x4920 <eeprom_read_byte>
     526:	80 93 2a 01 	sts	0x012A, r24	; 0x80012a <registerMap+0xf>
     52a:	82 e0       	ldi	r24, 0x02	; 2
     52c:	90 e0       	ldi	r25, 0x00	; 0
     52e:	0e 94 90 24 	call	0x4920	; 0x4920 <eeprom_read_byte>
     532:	80 93 2b 01 	sts	0x012B, r24	; 0x80012b <registerMap+0x10>
     536:	83 e0       	ldi	r24, 0x03	; 3
     538:	90 e0       	ldi	r25, 0x00	; 0
     53a:	0e 94 90 24 	call	0x4920	; 0x4920 <eeprom_read_byte>
     53e:	80 93 2c 01 	sts	0x012C, r24	; 0x80012c <registerMap+0x11>
     542:	84 e0       	ldi	r24, 0x04	; 4
     544:	90 e0       	ldi	r25, 0x00	; 0
     546:	0e 94 90 24 	call	0x4920	; 0x4920 <eeprom_read_byte>
     54a:	80 93 2d 01 	sts	0x012D, r24	; 0x80012d <registerMap+0x12>
     54e:	85 e0       	ldi	r24, 0x05	; 5
     550:	90 e0       	ldi	r25, 0x00	; 0
     552:	0e 94 90 24 	call	0x4920	; 0x4920 <eeprom_read_byte>
     556:	80 93 2e 01 	sts	0x012E, r24	; 0x80012e <registerMap+0x13>
     55a:	86 e0       	ldi	r24, 0x06	; 6
     55c:	90 e0       	ldi	r25, 0x00	; 0
     55e:	0e 94 90 24 	call	0x4920	; 0x4920 <eeprom_read_byte>
     562:	80 93 2f 01 	sts	0x012F, r24	; 0x80012f <registerMap+0x14>
     566:	11 50       	subi	r17, 0x01	; 1
     568:	1d 3f       	cpi	r17, 0xFD	; 253
     56a:	18 f0       	brcs	.+6      	; 0x572 <_Z5setupv+0xde>
     56c:	81 e0       	ldi	r24, 0x01	; 1
     56e:	80 93 29 01 	sts	0x0129, r24	; 0x800129 <registerMap+0xe>
     572:	69 e2       	ldi	r22, 0x29	; 41
     574:	71 e0       	ldi	r23, 0x01	; 1
     576:	8c e8       	ldi	r24, 0x8C	; 140
     578:	91 e0       	ldi	r25, 0x01	; 1
     57a:	0e 94 6b 06 	call	0xcd6	; 0xcd6 <_ZN7Network10initializeERKh>
     57e:	82 e0       	ldi	r24, 0x02	; 2
     580:	89 83       	std	Y+1, r24	; 0x01
     582:	42 ea       	ldi	r20, 0xA2	; 162
     584:	50 e0       	ldi	r21, 0x00	; 0
     586:	be 01       	movw	r22, r28
     588:	6f 5f       	subi	r22, 0xFF	; 255
     58a:	7f 4f       	sbci	r23, 0xFF	; 255
     58c:	8c e8       	ldi	r24, 0x8C	; 140
     58e:	91 e0       	ldi	r25, 0x01	; 1
     590:	0e 94 a3 06 	call	0xd46	; 0xd46 <_ZN7Network14assignCallbackERKhPFvS1_PS0_E>
     594:	83 e0       	ldi	r24, 0x03	; 3
     596:	89 83       	std	Y+1, r24	; 0x01
     598:	4d e3       	ldi	r20, 0x3D	; 61
     59a:	51 e0       	ldi	r21, 0x01	; 1
     59c:	be 01       	movw	r22, r28
     59e:	6f 5f       	subi	r22, 0xFF	; 255
     5a0:	7f 4f       	sbci	r23, 0xFF	; 255
     5a2:	8c e8       	ldi	r24, 0x8C	; 140
     5a4:	91 e0       	ldi	r25, 0x01	; 1
     5a6:	0e 94 a3 06 	call	0xd46	; 0xd46 <_ZN7Network14assignCallbackERKhPFvS1_PS0_E>
     5aa:	85 e0       	ldi	r24, 0x05	; 5
     5ac:	89 83       	std	Y+1, r24	; 0x01
     5ae:	4b ec       	ldi	r20, 0xCB	; 203
     5b0:	50 e0       	ldi	r21, 0x00	; 0
     5b2:	be 01       	movw	r22, r28
     5b4:	6f 5f       	subi	r22, 0xFF	; 255
     5b6:	7f 4f       	sbci	r23, 0xFF	; 255
     5b8:	8c e8       	ldi	r24, 0x8C	; 140
     5ba:	91 e0       	ldi	r25, 0x01	; 1
     5bc:	0e 94 a3 06 	call	0xd46	; 0xd46 <_ZN7Network14assignCallbackERKhPFvS1_PS0_E>
     5c0:	88 e0       	ldi	r24, 0x08	; 8
     5c2:	89 83       	std	Y+1, r24	; 0x01
     5c4:	43 ed       	ldi	r20, 0xD3	; 211
     5c6:	50 e0       	ldi	r21, 0x00	; 0
     5c8:	be 01       	movw	r22, r28
     5ca:	6f 5f       	subi	r22, 0xFF	; 255
     5cc:	7f 4f       	sbci	r23, 0xFF	; 255
     5ce:	8c e8       	ldi	r24, 0x8C	; 140
     5d0:	91 e0       	ldi	r25, 0x01	; 1
     5d2:	0e 94 a3 06 	call	0xd46	; 0xd46 <_ZN7Network14assignCallbackERKhPFvS1_PS0_E>
     5d6:	81 b3       	in	r24, 0x11	; 17
     5d8:	83 67       	ori	r24, 0x73	; 115
     5da:	81 bb       	out	0x11, r24	; 17
     5dc:	10 92 1c 01 	sts	0x011C, r1	; 0x80011c <registerMap+0x1>
     5e0:	8c e3       	ldi	r24, 0x3C	; 60
     5e2:	91 e0       	ldi	r25, 0x01	; 1
     5e4:	0e 94 3b 09 	call	0x1276	; 0x1276 <_ZN3TWI10initializeEv>
     5e8:	44 e6       	ldi	r20, 0x64	; 100
     5ea:	50 e0       	ldi	r21, 0x00	; 0
     5ec:	60 e0       	ldi	r22, 0x00	; 0
     5ee:	70 e0       	ldi	r23, 0x00	; 0
     5f0:	88 e8       	ldi	r24, 0x88	; 136
     5f2:	91 e0       	ldi	r25, 0x01	; 1
     5f4:	0e 94 ff 08 	call	0x11fe	; 0x11fe <_ZN4Time5delayEm>
     5f8:	04 b6       	in	r0, 0x34	; 52
     5fa:	00 fc       	sbrc	r0, 0
     5fc:	4c c0       	rjmp	.+152    	; 0x696 <_Z5setupv+0x202>
     5fe:	80 91 1b 01 	lds	r24, 0x011B	; 0x80011b <registerMap>
     602:	80 64       	ori	r24, 0x40	; 64
     604:	80 93 1b 01 	sts	0x011B, r24	; 0x80011b <registerMap>
     608:	80 e8       	ldi	r24, 0x80	; 128
     60a:	91 e0       	ldi	r25, 0x01	; 1
     60c:	0e 94 d6 05 	call	0xbac	; 0xbac <_ZN6Analog10initializeEv>
     610:	8f ef       	ldi	r24, 0xFF	; 255
     612:	9f e7       	ldi	r25, 0x7F	; 127
     614:	90 93 14 01 	sts	0x0114, r25	; 0x800114 <force+0x1>
     618:	80 93 13 01 	sts	0x0113, r24	; 0x800113 <force>
     61c:	90 93 16 01 	sts	0x0116, r25	; 0x800116 <distance+0x1>
     620:	80 93 15 01 	sts	0x0115, r24	; 0x800115 <distance>
     624:	90 93 12 01 	sts	0x0112, r25	; 0x800112 <vbatt+0x1>
     628:	80 93 11 01 	sts	0x0111, r24	; 0x800111 <vbatt>
     62c:	90 93 10 01 	sts	0x0110, r25	; 0x800110 <temperature+0x1>
     630:	80 93 0f 01 	sts	0x010F, r24	; 0x80010f <temperature>
     634:	9f e7       	ldi	r25, 0x7F	; 127
     636:	90 93 23 01 	sts	0x0123, r25	; 0x800123 <registerMap+0x8>
     63a:	8f ef       	ldi	r24, 0xFF	; 255
     63c:	80 93 24 01 	sts	0x0124, r24	; 0x800124 <registerMap+0x9>
     640:	90 93 21 01 	sts	0x0121, r25	; 0x800121 <registerMap+0x6>
     644:	80 93 22 01 	sts	0x0122, r24	; 0x800122 <registerMap+0x7>
     648:	90 93 25 01 	sts	0x0125, r25	; 0x800125 <registerMap+0xa>
     64c:	80 93 26 01 	sts	0x0126, r24	; 0x800126 <registerMap+0xb>
     650:	90 93 27 01 	sts	0x0127, r25	; 0x800127 <registerMap+0xc>
     654:	80 93 28 01 	sts	0x0128, r24	; 0x800128 <registerMap+0xd>
     658:	80 91 88 01 	lds	r24, 0x0188	; 0x800188 <TIME>
     65c:	90 91 89 01 	lds	r25, 0x0189	; 0x800189 <TIME+0x1>
     660:	a0 91 8a 01 	lds	r26, 0x018A	; 0x80018a <TIME+0x2>
     664:	b0 91 8b 01 	lds	r27, 0x018B	; 0x80018b <TIME+0x3>
     668:	80 93 0b 01 	sts	0x010B, r24	; 0x80010b <timer>
     66c:	90 93 0c 01 	sts	0x010C, r25	; 0x80010c <timer+0x1>
     670:	a0 93 0d 01 	sts	0x010D, r26	; 0x80010d <timer+0x2>
     674:	b0 93 0e 01 	sts	0x010E, r27	; 0x80010e <timer+0x3>
     678:	10 92 06 01 	sts	0x0106, r1	; 0x800106 <framecounter+0x1>
     67c:	10 92 05 01 	sts	0x0105, r1	; 0x800105 <framecounter>
     680:	10 92 04 01 	sts	0x0104, r1	; 0x800104 <ledPhase>
     684:	8b e3       	ldi	r24, 0x3B	; 59
     686:	92 e0       	ldi	r25, 0x02	; 2
     688:	0e 94 36 24 	call	0x486c	; 0x486c <_ZN8Watchdog2onEv>
     68c:	0f 90       	pop	r0
     68e:	df 91       	pop	r29
     690:	cf 91       	pop	r28
     692:	1f 91       	pop	r17
     694:	08 95       	ret
     696:	61 e0       	ldi	r22, 0x01	; 1
     698:	80 e3       	ldi	r24, 0x30	; 48
     69a:	91 e0       	ldi	r25, 0x01	; 1
     69c:	0e 94 22 14 	call	0x2844	; 0x2844 <_ZN7VL53L0X4initEb>
     6a0:	82 30       	cpi	r24, 0x02	; 2
     6a2:	09 f4       	brne	.+2      	; 0x6a6 <_Z5setupv+0x212>
     6a4:	68 c0       	rjmp	.+208    	; 0x776 <_Z5setupv+0x2e2>
     6a6:	50 f4       	brcc	.+20     	; 0x6bc <_Z5setupv+0x228>
     6a8:	88 23       	and	r24, r24
     6aa:	e1 f1       	breq	.+120    	; 0x724 <_Z5setupv+0x290>
     6ac:	81 30       	cpi	r24, 0x01	; 1
     6ae:	d1 f4       	brne	.+52     	; 0x6e4 <_Z5setupv+0x250>
     6b0:	80 93 03 01 	sts	0x0103, r24	; 0x800103 <bootError>
     6b4:	10 92 02 01 	sts	0x0102, r1	; 0x800102 <boot_r>
     6b8:	84 e1       	ldi	r24, 0x14	; 20
     6ba:	0a c0       	rjmp	.+20     	; 0x6d0 <_Z5setupv+0x23c>
     6bc:	83 30       	cpi	r24, 0x03	; 3
     6be:	11 f1       	breq	.+68     	; 0x704 <_Z5setupv+0x270>
     6c0:	84 30       	cpi	r24, 0x04	; 4
     6c2:	81 f4       	brne	.+32     	; 0x6e4 <_Z5setupv+0x250>
     6c4:	81 e0       	ldi	r24, 0x01	; 1
     6c6:	80 93 03 01 	sts	0x0103, r24	; 0x800103 <bootError>
     6ca:	84 e1       	ldi	r24, 0x14	; 20
     6cc:	80 93 02 01 	sts	0x0102, r24	; 0x800102 <boot_r>
     6d0:	80 93 01 01 	sts	0x0101, r24	; 0x800101 <boot_g>
     6d4:	10 92 00 01 	sts	0x0100, r1	; 0x800100 <_edata>
     6d8:	80 91 1b 01 	lds	r24, 0x011B	; 0x80011b <registerMap>
     6dc:	8f 7b       	andi	r24, 0xBF	; 191
     6de:	80 93 1b 01 	sts	0x011B, r24	; 0x80011b <registerMap>
     6e2:	92 cf       	rjmp	.-220    	; 0x608 <_Z5setupv+0x174>
     6e4:	81 e0       	ldi	r24, 0x01	; 1
     6e6:	80 93 03 01 	sts	0x0103, r24	; 0x800103 <bootError>
     6ea:	10 92 02 01 	sts	0x0102, r1	; 0x800102 <boot_r>
     6ee:	84 e1       	ldi	r24, 0x14	; 20
     6f0:	80 93 01 01 	sts	0x0101, r24	; 0x800101 <boot_g>
     6f4:	80 93 00 01 	sts	0x0100, r24	; 0x800100 <_edata>
     6f8:	80 91 1b 01 	lds	r24, 0x011B	; 0x80011b <registerMap>
     6fc:	8f 7b       	andi	r24, 0xBF	; 191
     6fe:	80 93 1b 01 	sts	0x011B, r24	; 0x80011b <registerMap>
     702:	82 cf       	rjmp	.-252    	; 0x608 <_Z5setupv+0x174>
     704:	81 e0       	ldi	r24, 0x01	; 1
     706:	80 93 03 01 	sts	0x0103, r24	; 0x800103 <bootError>
     70a:	84 e1       	ldi	r24, 0x14	; 20
     70c:	80 93 02 01 	sts	0x0102, r24	; 0x800102 <boot_r>
     710:	10 92 01 01 	sts	0x0101, r1	; 0x800101 <boot_g>
     714:	80 93 00 01 	sts	0x0100, r24	; 0x800100 <_edata>
     718:	80 91 1b 01 	lds	r24, 0x011B	; 0x80011b <registerMap>
     71c:	8f 7b       	andi	r24, 0xBF	; 191
     71e:	80 93 1b 01 	sts	0x011B, r24	; 0x80011b <registerMap>
     722:	72 cf       	rjmp	.-284    	; 0x608 <_Z5setupv+0x174>
     724:	44 e6       	ldi	r20, 0x64	; 100
     726:	50 e0       	ldi	r21, 0x00	; 0
     728:	60 e0       	ldi	r22, 0x00	; 0
     72a:	70 e0       	ldi	r23, 0x00	; 0
     72c:	88 e8       	ldi	r24, 0x88	; 136
     72e:	91 e0       	ldi	r25, 0x01	; 1
     730:	0e 94 ff 08 	call	0x11fe	; 0x11fe <_ZN4Time5delayEm>
     734:	42 e1       	ldi	r20, 0x12	; 18
     736:	60 e0       	ldi	r22, 0x00	; 0
     738:	80 e3       	ldi	r24, 0x30	; 48
     73a:	91 e0       	ldi	r25, 0x01	; 1
     73c:	0e 94 27 1f 	call	0x3e4e	; 0x3e4e <_ZN7VL53L0X19setVcselPulsePeriodENS_15vcselPeriodTypeEh>
     740:	4e e0       	ldi	r20, 0x0E	; 14
     742:	61 e0       	ldi	r22, 0x01	; 1
     744:	80 e3       	ldi	r24, 0x30	; 48
     746:	91 e0       	ldi	r25, 0x01	; 1
     748:	0e 94 27 1f 	call	0x3e4e	; 0x3e4e <_ZN7VL53L0X19setVcselPulsePeriodENS_15vcselPeriodTypeEh>
     74c:	44 e6       	ldi	r20, 0x64	; 100
     74e:	50 e0       	ldi	r21, 0x00	; 0
     750:	60 e0       	ldi	r22, 0x00	; 0
     752:	70 e0       	ldi	r23, 0x00	; 0
     754:	88 e8       	ldi	r24, 0x88	; 136
     756:	91 e0       	ldi	r25, 0x01	; 1
     758:	0e 94 ff 08 	call	0x11fe	; 0x11fe <_ZN4Time5delayEm>
     75c:	40 e0       	ldi	r20, 0x00	; 0
     75e:	50 e0       	ldi	r21, 0x00	; 0
     760:	ba 01       	movw	r22, r20
     762:	80 e3       	ldi	r24, 0x30	; 48
     764:	91 e0       	ldi	r25, 0x01	; 1
     766:	0e 94 69 0e 	call	0x1cd2	; 0x1cd2 <_ZN7VL53L0X15startContinuousEm>
     76a:	80 91 1b 01 	lds	r24, 0x011B	; 0x80011b <registerMap>
     76e:	80 64       	ori	r24, 0x40	; 64
     770:	80 93 1b 01 	sts	0x011B, r24	; 0x80011b <registerMap>
     774:	49 cf       	rjmp	.-366    	; 0x608 <_Z5setupv+0x174>
     776:	81 e0       	ldi	r24, 0x01	; 1
     778:	80 93 03 01 	sts	0x0103, r24	; 0x800103 <bootError>
     77c:	10 92 02 01 	sts	0x0102, r1	; 0x800102 <boot_r>
     780:	10 92 01 01 	sts	0x0101, r1	; 0x800101 <boot_g>
     784:	84 e1       	ldi	r24, 0x14	; 20
     786:	80 93 00 01 	sts	0x0100, r24	; 0x800100 <_edata>
     78a:	80 91 1b 01 	lds	r24, 0x011B	; 0x80011b <registerMap>
     78e:	8f 7b       	andi	r24, 0xBF	; 191
     790:	80 93 1b 01 	sts	0x011B, r24	; 0x80011b <registerMap>
     794:	39 cf       	rjmp	.-398    	; 0x608 <_Z5setupv+0x174>

00000796 <main>:
     796:	8b e3       	ldi	r24, 0x3B	; 59
     798:	92 e0       	ldi	r25, 0x02	; 2
     79a:	0e 94 29 24 	call	0x4852	; 0x4852 <_ZN8Watchdog3offEv>
     79e:	04 b6       	in	r0, 0x34	; 52
     7a0:	03 fe       	sbrs	r0, 3
     7a2:	f4 c1       	rjmp	.+1000   	; 0xb8c <__stack+0x8d>
     7a4:	80 91 20 01 	lds	r24, 0x0120	; 0x800120 <registerMap+0x5>
     7a8:	8f 5f       	subi	r24, 0xFF	; 255
     7aa:	80 93 20 01 	sts	0x0120, r24	; 0x800120 <registerMap+0x5>
     7ae:	88 e8       	ldi	r24, 0x88	; 136
     7b0:	91 e0       	ldi	r25, 0x01	; 1
     7b2:	0e 94 ea 08 	call	0x11d4	; 0x11d4 <_ZN4Time10initializeEv>
     7b6:	0e 94 4a 02 	call	0x494	; 0x494 <_Z5setupv>
     7ba:	84 b7       	in	r24, 0x34	; 52
     7bc:	80 7e       	andi	r24, 0xE0	; 224
     7be:	84 bf       	out	0x34, r24	; 52
     7c0:	80 91 05 01 	lds	r24, 0x0105	; 0x800105 <framecounter>
     7c4:	90 91 06 01 	lds	r25, 0x0106	; 0x800106 <framecounter+0x1>
     7c8:	ad e7       	ldi	r26, 0x7D	; 125
     7ca:	fa 2e       	mov	r15, r26
     7cc:	cb e7       	ldi	r28, 0x7B	; 123
     7ce:	dd e0       	ldi	r29, 0x0D	; 13
     7d0:	b0 e2       	ldi	r27, 0x20	; 32
     7d2:	cb 2e       	mov	r12, r27
     7d4:	b6 e0       	ldi	r27, 0x06	; 6
     7d6:	db 2e       	mov	r13, r27
     7d8:	10 e1       	ldi	r17, 0x10	; 16
     7da:	e1 2e       	mov	r14, r17
     7dc:	a8 95       	wdr
     7de:	85 3f       	cpi	r24, 0xF5	; 245
     7e0:	91 40       	sbci	r25, 0x01	; 1
     7e2:	60 f0       	brcs	.+24     	; 0x7fc <main+0x66>
     7e4:	10 92 06 01 	sts	0x0106, r1	; 0x800106 <framecounter+0x1>
     7e8:	10 92 05 01 	sts	0x0105, r1	; 0x800105 <framecounter>
     7ec:	80 91 04 01 	lds	r24, 0x0104	; 0x800104 <ledPhase>
     7f0:	90 e0       	ldi	r25, 0x00	; 0
     7f2:	01 96       	adiw	r24, 0x01	; 1
     7f4:	83 70       	andi	r24, 0x03	; 3
     7f6:	99 27       	eor	r25, r25
     7f8:	80 93 04 01 	sts	0x0104, r24	; 0x800104 <ledPhase>
     7fc:	8c e8       	ldi	r24, 0x8C	; 140
     7fe:	91 e0       	ldi	r25, 0x01	; 1
     800:	0e 94 50 07 	call	0xea0	; 0xea0 <_ZN7Network6updateEv>
     804:	10 92 1c 01 	sts	0x011C, r1	; 0x80011c <registerMap+0x1>
     808:	78 99       	sbic	0x0f, 0	; 15
     80a:	29 c1       	rjmp	.+594    	; 0xa5e <main+0x2c8>
     80c:	e0 92 1c 01 	sts	0x011C, r14	; 0x80011c <registerMap+0x1>
     810:	98 e1       	ldi	r25, 0x18	; 24
     812:	80 e1       	ldi	r24, 0x10	; 16
     814:	79 99       	sbic	0x0f, 1	; 15
     816:	03 c0       	rjmp	.+6      	; 0x81e <main+0x88>
     818:	90 93 1c 01 	sts	0x011C, r25	; 0x80011c <registerMap+0x1>
     81c:	89 2f       	mov	r24, r25
     81e:	7c 99       	sbic	0x0f, 4	; 15
     820:	03 c0       	rjmp	.+6      	; 0x828 <main+0x92>
     822:	81 60       	ori	r24, 0x01	; 1
     824:	80 93 1c 01 	sts	0x011C, r24	; 0x80011c <registerMap+0x1>
     828:	7d 99       	sbic	0x0f, 5	; 15
     82a:	5d c1       	rjmp	.+698    	; 0xae6 <main+0x350>
     82c:	84 60       	ori	r24, 0x04	; 4
     82e:	80 93 1c 01 	sts	0x011C, r24	; 0x80011c <registerMap+0x1>
     832:	7e 99       	sbic	0x0f, 6	; 15
     834:	03 c0       	rjmp	.+6      	; 0x83c <main+0xa6>
     836:	82 60       	ori	r24, 0x02	; 2
     838:	80 93 1c 01 	sts	0x011C, r24	; 0x80011c <registerMap+0x1>
     83c:	80 91 1b 01 	lds	r24, 0x011B	; 0x80011b <registerMap>
     840:	80 61       	ori	r24, 0x10	; 16
     842:	80 93 1b 01 	sts	0x011B, r24	; 0x80011b <registerMap>
     846:	80 91 2c 01 	lds	r24, 0x012C	; 0x80012c <registerMap+0x11>
     84a:	90 91 2d 01 	lds	r25, 0x012D	; 0x80012d <registerMap+0x12>
     84e:	98 27       	eor	r25, r24
     850:	89 27       	eor	r24, r25
     852:	98 27       	eor	r25, r24
     854:	90 93 1a 01 	sts	0x011A, r25	; 0x80011a <distanceThreshold+0x1>
     858:	80 93 19 01 	sts	0x0119, r24	; 0x800119 <distanceThreshold>
     85c:	80 91 2e 01 	lds	r24, 0x012E	; 0x80012e <registerMap+0x13>
     860:	90 91 2f 01 	lds	r25, 0x012F	; 0x80012f <registerMap+0x14>
     864:	98 27       	eor	r25, r24
     866:	89 27       	eor	r24, r25
     868:	98 27       	eor	r25, r24
     86a:	90 93 18 01 	sts	0x0118, r25	; 0x800118 <forceThreshold+0x1>
     86e:	80 93 17 01 	sts	0x0117, r24	; 0x800117 <forceThreshold>
     872:	80 e8       	ldi	r24, 0x80	; 128
     874:	91 e0       	ldi	r25, 0x01	; 1
     876:	0e 94 f8 05 	call	0xbf0	; 0xbf0 <_ZN6Analog8getVBattEv>
     87a:	90 93 12 01 	sts	0x0112, r25	; 0x800112 <vbatt+0x1>
     87e:	80 93 11 01 	sts	0x0111, r24	; 0x800111 <vbatt>
     882:	80 e8       	ldi	r24, 0x80	; 128
     884:	91 e0       	ldi	r25, 0x01	; 1
     886:	0e 94 ff 05 	call	0xbfe	; 0xbfe <_ZN6Analog14getTemperatureEv>
     88a:	90 93 10 01 	sts	0x0110, r25	; 0x800110 <temperature+0x1>
     88e:	80 93 0f 01 	sts	0x010F, r24	; 0x80010f <temperature>
     892:	80 e8       	ldi	r24, 0x80	; 128
     894:	91 e0       	ldi	r25, 0x01	; 1
     896:	0e 94 f1 05 	call	0xbe2	; 0xbe2 <_ZN6Analog8getForceEv>
     89a:	9c 01       	movw	r18, r24
     89c:	90 93 14 01 	sts	0x0114, r25	; 0x800114 <force+0x1>
     8a0:	80 93 13 01 	sts	0x0113, r24	; 0x800113 <force>
     8a4:	90 91 1b 01 	lds	r25, 0x011B	; 0x80011b <registerMap>
     8a8:	96 ff       	sbrs	r25, 6
     8aa:	dc c0       	rjmp	.+440    	; 0xa64 <main+0x2ce>
     8ac:	1c 99       	sbic	0x03, 4	; 3
     8ae:	da c0       	rjmp	.+436    	; 0xa64 <main+0x2ce>
     8b0:	80 e3       	ldi	r24, 0x30	; 48
     8b2:	91 e0       	ldi	r25, 0x01	; 1
     8b4:	0e 94 83 0f 	call	0x1f06	; 0x1f06 <_ZN7VL53L0X13fastReadRangeEv>
     8b8:	ac 01       	movw	r20, r24
     8ba:	90 93 16 01 	sts	0x0116, r25	; 0x800116 <distance+0x1>
     8be:	80 93 15 01 	sts	0x0115, r24	; 0x800115 <distance>
     8c2:	20 91 13 01 	lds	r18, 0x0113	; 0x800113 <force>
     8c6:	30 91 14 01 	lds	r19, 0x0114	; 0x800114 <force+0x1>
     8ca:	90 91 1b 01 	lds	r25, 0x011B	; 0x80011b <registerMap>
     8ce:	60 91 17 01 	lds	r22, 0x0117	; 0x800117 <forceThreshold>
     8d2:	70 91 18 01 	lds	r23, 0x0118	; 0x800118 <forceThreshold+0x1>
     8d6:	62 17       	cp	r22, r18
     8d8:	73 07       	cpc	r23, r19
     8da:	08 f0       	brcs	.+2      	; 0x8de <main+0x148>
     8dc:	cf c0       	rjmp	.+414    	; 0xa7c <main+0x2e6>
     8de:	94 60       	ori	r25, 0x04	; 4
     8e0:	60 91 19 01 	lds	r22, 0x0119	; 0x800119 <distanceThreshold>
     8e4:	70 91 1a 01 	lds	r23, 0x011A	; 0x80011a <distanceThreshold+0x1>
     8e8:	46 17       	cp	r20, r22
     8ea:	57 07       	cpc	r21, r23
     8ec:	08 f0       	brcs	.+2      	; 0x8f0 <main+0x15a>
     8ee:	cf c0       	rjmp	.+414    	; 0xa8e <main+0x2f8>
     8f0:	98 60       	ori	r25, 0x08	; 8
     8f2:	90 93 1b 01 	sts	0x011B, r25	; 0x80011b <registerMap>
     8f6:	30 93 23 01 	sts	0x0123, r19	; 0x800123 <registerMap+0x8>
     8fa:	20 93 24 01 	sts	0x0124, r18	; 0x800124 <registerMap+0x9>
     8fe:	50 93 21 01 	sts	0x0121, r21	; 0x800121 <registerMap+0x6>
     902:	40 93 22 01 	sts	0x0122, r20	; 0x800122 <registerMap+0x7>
     906:	80 91 11 01 	lds	r24, 0x0111	; 0x800111 <vbatt>
     90a:	20 91 12 01 	lds	r18, 0x0112	; 0x800112 <vbatt+0x1>
     90e:	20 93 25 01 	sts	0x0125, r18	; 0x800125 <registerMap+0xa>
     912:	80 93 26 01 	sts	0x0126, r24	; 0x800126 <registerMap+0xb>
     916:	80 91 0f 01 	lds	r24, 0x010F	; 0x80010f <temperature>
     91a:	20 91 10 01 	lds	r18, 0x0110	; 0x800110 <temperature+0x1>
     91e:	20 93 27 01 	sts	0x0127, r18	; 0x800127 <registerMap+0xc>
     922:	80 93 28 01 	sts	0x0128, r24	; 0x800128 <registerMap+0xd>
     926:	40 91 03 01 	lds	r20, 0x0103	; 0x800103 <bootError>
     92a:	80 90 0b 01 	lds	r8, 0x010B	; 0x80010b <timer>
     92e:	90 90 0c 01 	lds	r9, 0x010C	; 0x80010c <timer+0x1>
     932:	a0 90 0d 01 	lds	r10, 0x010D	; 0x80010d <timer+0x2>
     936:	b0 90 0e 01 	lds	r11, 0x010E	; 0x80010e <timer+0x3>
     93a:	44 23       	and	r20, r20
     93c:	09 f4       	brne	.+2      	; 0x940 <main+0x1aa>
     93e:	ab c0       	rjmp	.+342    	; 0xa96 <main+0x300>
     940:	40 90 07 01 	lds	r4, 0x0107	; 0x800107 <start>
     944:	50 90 08 01 	lds	r5, 0x0108	; 0x800108 <start+0x1>
     948:	60 90 09 01 	lds	r6, 0x0109	; 0x800109 <start+0x2>
     94c:	70 90 0a 01 	lds	r7, 0x010A	; 0x80010a <start+0x3>
     950:	95 01       	movw	r18, r10
     952:	84 01       	movw	r16, r8
     954:	04 19       	sub	r16, r4
     956:	15 09       	sbc	r17, r5
     958:	26 09       	sbc	r18, r6
     95a:	37 09       	sbc	r19, r7
     95c:	28 01       	movw	r4, r16
     95e:	39 01       	movw	r6, r18
     960:	18 eb       	ldi	r17, 0xB8	; 184
     962:	41 16       	cp	r4, r17
     964:	1b e0       	ldi	r17, 0x0B	; 11
     966:	51 06       	cpc	r5, r17
     968:	61 04       	cpc	r6, r1
     96a:	71 04       	cpc	r7, r1
     96c:	08 f0       	brcs	.+2      	; 0x970 <main+0x1da>
     96e:	93 c0       	rjmp	.+294    	; 0xa96 <main+0x300>
     970:	80 91 02 01 	lds	r24, 0x0102	; 0x800102 <boot_r>
     974:	2b ef       	ldi	r18, 0xFB	; 251
     976:	82 9f       	mul	r24, r18
     978:	c0 01       	movw	r24, r0
     97a:	11 24       	eor	r1, r1
     97c:	96 95       	lsr	r25
     97e:	87 95       	ror	r24
     980:	96 95       	lsr	r25
     982:	87 95       	ror	r24
     984:	20 91 01 01 	lds	r18, 0x0101	; 0x800101 <boot_g>
     988:	5b ef       	ldi	r21, 0xFB	; 251
     98a:	25 9f       	mul	r18, r21
     98c:	90 01       	movw	r18, r0
     98e:	11 24       	eor	r1, r1
     990:	36 95       	lsr	r19
     992:	27 95       	ror	r18
     994:	36 95       	lsr	r19
     996:	27 95       	ror	r18
     998:	60 91 00 01 	lds	r22, 0x0100	; 0x800100 <_edata>
     99c:	0b ef       	ldi	r16, 0xFB	; 251
     99e:	60 9f       	mul	r22, r16
     9a0:	b0 01       	movw	r22, r0
     9a2:	11 24       	eor	r1, r1
     9a4:	76 95       	lsr	r23
     9a6:	67 95       	ror	r22
     9a8:	76 95       	lsr	r23
     9aa:	67 95       	ror	r22
     9ac:	70 93 89 00 	sts	0x0089, r23	; 0x800089 <__TEXT_REGION_LENGTH__+0x7e0089>
     9b0:	60 93 88 00 	sts	0x0088, r22	; 0x800088 <__TEXT_REGION_LENGTH__+0x7e0088>
     9b4:	30 93 8b 00 	sts	0x008B, r19	; 0x80008b <__TEXT_REGION_LENGTH__+0x7e008b>
     9b8:	20 93 8a 00 	sts	0x008A, r18	; 0x80008a <__TEXT_REGION_LENGTH__+0x7e008a>
     9bc:	90 93 8d 00 	sts	0x008D, r25	; 0x80008d <__TEXT_REGION_LENGTH__+0x7e008d>
     9c0:	80 93 8c 00 	sts	0x008C, r24	; 0x80008c <__TEXT_REGION_LENGTH__+0x7e008c>
     9c4:	80 91 88 01 	lds	r24, 0x0188	; 0x800188 <TIME>
     9c8:	90 91 89 01 	lds	r25, 0x0189	; 0x800189 <TIME+0x1>
     9cc:	a0 91 8a 01 	lds	r26, 0x018A	; 0x80018a <TIME+0x2>
     9d0:	b0 91 8b 01 	lds	r27, 0x018B	; 0x80018b <TIME+0x3>
     9d4:	88 16       	cp	r8, r24
     9d6:	99 06       	cpc	r9, r25
     9d8:	aa 06       	cpc	r10, r26
     9da:	bb 06       	cpc	r11, r27
     9dc:	08 f0       	brcs	.+2      	; 0x9e0 <main+0x24a>
     9de:	8d c0       	rjmp	.+282    	; 0xafa <main+0x364>
     9e0:	80 91 05 01 	lds	r24, 0x0105	; 0x800105 <framecounter>
     9e4:	90 91 06 01 	lds	r25, 0x0106	; 0x800106 <framecounter+0x1>
     9e8:	01 96       	adiw	r24, 0x01	; 1
     9ea:	90 93 06 01 	sts	0x0106, r25	; 0x800106 <framecounter+0x1>
     9ee:	80 93 05 01 	sts	0x0105, r24	; 0x800105 <framecounter>
     9f2:	80 90 88 01 	lds	r8, 0x0188	; 0x800188 <TIME>
     9f6:	90 90 89 01 	lds	r9, 0x0189	; 0x800189 <TIME+0x1>
     9fa:	a0 90 8a 01 	lds	r10, 0x018A	; 0x80018a <TIME+0x2>
     9fe:	b0 90 8b 01 	lds	r11, 0x018B	; 0x80018b <TIME+0x3>
     a02:	80 92 0b 01 	sts	0x010B, r8	; 0x80010b <timer>
     a06:	90 92 0c 01 	sts	0x010C, r9	; 0x80010c <timer+0x1>
     a0a:	a0 92 0d 01 	sts	0x010D, r10	; 0x80010d <timer+0x2>
     a0e:	b0 92 0e 01 	sts	0x010E, r11	; 0x80010e <timer+0x3>
     a12:	44 23       	and	r20, r20
     a14:	09 f4       	brne	.+2      	; 0xa18 <main+0x282>
     a16:	e2 ce       	rjmp	.-572    	; 0x7dc <main+0x46>
     a18:	40 91 07 01 	lds	r20, 0x0107	; 0x800107 <start>
     a1c:	50 91 08 01 	lds	r21, 0x0108	; 0x800108 <start+0x1>
     a20:	60 91 09 01 	lds	r22, 0x0109	; 0x800109 <start+0x2>
     a24:	70 91 0a 01 	lds	r23, 0x010A	; 0x80010a <start+0x3>
     a28:	84 1a       	sub	r8, r20
     a2a:	95 0a       	sbc	r9, r21
     a2c:	a6 0a       	sbc	r10, r22
     a2e:	b7 0a       	sbc	r11, r23
     a30:	19 eb       	ldi	r17, 0xB9	; 185
     a32:	81 16       	cp	r8, r17
     a34:	1b e0       	ldi	r17, 0x0B	; 11
     a36:	91 06       	cpc	r9, r17
     a38:	a1 04       	cpc	r10, r1
     a3a:	b1 04       	cpc	r11, r1
     a3c:	08 f4       	brcc	.+2      	; 0xa40 <main+0x2aa>
     a3e:	ce ce       	rjmp	.-612    	; 0x7dc <main+0x46>
     a40:	10 92 03 01 	sts	0x0103, r1	; 0x800103 <bootError>
     a44:	a8 95       	wdr
     a46:	85 3f       	cpi	r24, 0xF5	; 245
     a48:	91 40       	sbci	r25, 0x01	; 1
     a4a:	08 f0       	brcs	.+2      	; 0xa4e <main+0x2b8>
     a4c:	cb ce       	rjmp	.-618    	; 0x7e4 <main+0x4e>
     a4e:	8c e8       	ldi	r24, 0x8C	; 140
     a50:	91 e0       	ldi	r25, 0x01	; 1
     a52:	0e 94 50 07 	call	0xea0	; 0xea0 <_ZN7Network6updateEv>
     a56:	10 92 1c 01 	sts	0x011C, r1	; 0x80011c <registerMap+0x1>
     a5a:	78 9b       	sbis	0x0f, 0	; 15
     a5c:	d7 ce       	rjmp	.-594    	; 0x80c <main+0x76>
     a5e:	98 e0       	ldi	r25, 0x08	; 8
     a60:	80 e0       	ldi	r24, 0x00	; 0
     a62:	d8 ce       	rjmp	.-592    	; 0x814 <main+0x7e>
     a64:	40 91 15 01 	lds	r20, 0x0115	; 0x800115 <distance>
     a68:	50 91 16 01 	lds	r21, 0x0116	; 0x800116 <distance+0x1>
     a6c:	60 91 17 01 	lds	r22, 0x0117	; 0x800117 <forceThreshold>
     a70:	70 91 18 01 	lds	r23, 0x0118	; 0x800118 <forceThreshold+0x1>
     a74:	62 17       	cp	r22, r18
     a76:	73 07       	cpc	r23, r19
     a78:	08 f4       	brcc	.+2      	; 0xa7c <main+0x2e6>
     a7a:	31 cf       	rjmp	.-414    	; 0x8de <main+0x148>
     a7c:	9b 7f       	andi	r25, 0xFB	; 251
     a7e:	60 91 19 01 	lds	r22, 0x0119	; 0x800119 <distanceThreshold>
     a82:	70 91 1a 01 	lds	r23, 0x011A	; 0x80011a <distanceThreshold+0x1>
     a86:	46 17       	cp	r20, r22
     a88:	57 07       	cpc	r21, r23
     a8a:	08 f4       	brcc	.+2      	; 0xa8e <main+0x2f8>
     a8c:	31 cf       	rjmp	.-414    	; 0x8f0 <main+0x15a>
     a8e:	97 7f       	andi	r25, 0xF7	; 247
     a90:	90 93 1b 01 	sts	0x011B, r25	; 0x80011b <registerMap>
     a94:	30 cf       	rjmp	.-416    	; 0x8f6 <main+0x160>
     a96:	29 2f       	mov	r18, r25
     a98:	23 70       	andi	r18, 0x03	; 3
     a9a:	30 e0       	ldi	r19, 0x00	; 0
     a9c:	2f 5f       	subi	r18, 0xFF	; 255
     a9e:	3f 4f       	sbci	r19, 0xFF	; 255
     aa0:	f2 9e       	mul	r15, r18
     aa2:	b0 01       	movw	r22, r0
     aa4:	f3 9e       	mul	r15, r19
     aa6:	70 0d       	add	r23, r0
     aa8:	11 24       	eor	r1, r1
     aaa:	20 91 05 01 	lds	r18, 0x0105	; 0x800105 <framecounter>
     aae:	30 91 06 01 	lds	r19, 0x0106	; 0x800106 <framecounter+0x1>
     ab2:	62 17       	cp	r22, r18
     ab4:	73 07       	cpc	r23, r19
     ab6:	30 f1       	brcs	.+76     	; 0xb04 <__stack+0x5>
     ab8:	80 91 1d 01 	lds	r24, 0x011D	; 0x80011d <registerMap+0x2>
     abc:	1b ef       	ldi	r17, 0xFB	; 251
     abe:	81 9f       	mul	r24, r17
     ac0:	c0 01       	movw	r24, r0
     ac2:	11 24       	eor	r1, r1
     ac4:	96 95       	lsr	r25
     ac6:	87 95       	ror	r24
     ac8:	96 95       	lsr	r25
     aca:	87 95       	ror	r24
     acc:	20 91 1e 01 	lds	r18, 0x011E	; 0x80011e <registerMap+0x3>
     ad0:	5b ef       	ldi	r21, 0xFB	; 251
     ad2:	25 9f       	mul	r18, r21
     ad4:	90 01       	movw	r18, r0
     ad6:	11 24       	eor	r1, r1
     ad8:	36 95       	lsr	r19
     ada:	27 95       	ror	r18
     adc:	36 95       	lsr	r19
     ade:	27 95       	ror	r18
     ae0:	60 91 1f 01 	lds	r22, 0x011F	; 0x80011f <registerMap+0x4>
     ae4:	5b cf       	rjmp	.-330    	; 0x99c <main+0x206>
     ae6:	7e 9b       	sbis	0x0f, 6	; 15
     ae8:	a6 ce       	rjmp	.-692    	; 0x836 <main+0xa0>
     aea:	81 11       	cpse	r24, r1
     aec:	a7 ce       	rjmp	.-690    	; 0x83c <main+0xa6>
     aee:	80 91 1b 01 	lds	r24, 0x011B	; 0x80011b <registerMap>
     af2:	8f 7e       	andi	r24, 0xEF	; 239
     af4:	80 93 1b 01 	sts	0x011B, r24	; 0x80011b <registerMap>
     af8:	a6 ce       	rjmp	.-692    	; 0x846 <main+0xb0>
     afa:	80 91 05 01 	lds	r24, 0x0105	; 0x800105 <framecounter>
     afe:	90 91 06 01 	lds	r25, 0x0106	; 0x800106 <framecounter+0x1>
     b02:	6c ce       	rjmp	.-808    	; 0x7dc <main+0x46>
     b04:	80 91 04 01 	lds	r24, 0x0104	; 0x800104 <ledPhase>
     b08:	81 30       	cpi	r24, 0x01	; 1
     b0a:	89 f0       	breq	.+34     	; 0xb2e <__stack+0x2f>
     b0c:	82 30       	cpi	r24, 0x02	; 2
     b0e:	01 f1       	breq	.+64     	; 0xb50 <__stack+0x51>
     b10:	83 30       	cpi	r24, 0x03	; 3
     b12:	69 f1       	breq	.+90     	; 0xb6e <__stack+0x6f>
     b14:	10 92 89 00 	sts	0x0089, r1	; 0x800089 <__TEXT_REGION_LENGTH__+0x7e0089>
     b18:	10 92 88 00 	sts	0x0088, r1	; 0x800088 <__TEXT_REGION_LENGTH__+0x7e0088>
     b1c:	10 92 8b 00 	sts	0x008B, r1	; 0x80008b <__TEXT_REGION_LENGTH__+0x7e008b>
     b20:	10 92 8a 00 	sts	0x008A, r1	; 0x80008a <__TEXT_REGION_LENGTH__+0x7e008a>
     b24:	10 92 8d 00 	sts	0x008D, r1	; 0x80008d <__TEXT_REGION_LENGTH__+0x7e008d>
     b28:	10 92 8c 00 	sts	0x008C, r1	; 0x80008c <__TEXT_REGION_LENGTH__+0x7e008c>
     b2c:	4b cf       	rjmp	.-362    	; 0x9c4 <main+0x22e>
     b2e:	80 91 1c 01 	lds	r24, 0x011C	; 0x80011c <registerMap+0x1>
     b32:	88 23       	and	r24, r24
     b34:	79 f3       	breq	.-34     	; 0xb14 <__stack+0x15>
     b36:	10 92 89 00 	sts	0x0089, r1	; 0x800089 <__TEXT_REGION_LENGTH__+0x7e0089>
     b3a:	10 92 88 00 	sts	0x0088, r1	; 0x800088 <__TEXT_REGION_LENGTH__+0x7e0088>
     b3e:	d0 92 8b 00 	sts	0x008B, r13	; 0x80008b <__TEXT_REGION_LENGTH__+0x7e008b>
     b42:	c0 92 8a 00 	sts	0x008A, r12	; 0x80008a <__TEXT_REGION_LENGTH__+0x7e008a>
     b46:	d0 93 8d 00 	sts	0x008D, r29	; 0x80008d <__TEXT_REGION_LENGTH__+0x7e008d>
     b4a:	c0 93 8c 00 	sts	0x008C, r28	; 0x80008c <__TEXT_REGION_LENGTH__+0x7e008c>
     b4e:	3a cf       	rjmp	.-396    	; 0x9c4 <main+0x22e>
     b50:	93 ff       	sbrs	r25, 3
     b52:	e0 cf       	rjmp	.-64     	; 0xb14 <__stack+0x15>
     b54:	d0 93 89 00 	sts	0x0089, r29	; 0x800089 <__TEXT_REGION_LENGTH__+0x7e0089>
     b58:	c0 93 88 00 	sts	0x0088, r28	; 0x800088 <__TEXT_REGION_LENGTH__+0x7e0088>
     b5c:	10 92 8b 00 	sts	0x008B, r1	; 0x80008b <__TEXT_REGION_LENGTH__+0x7e008b>
     b60:	10 92 8a 00 	sts	0x008A, r1	; 0x80008a <__TEXT_REGION_LENGTH__+0x7e008a>
     b64:	10 92 8d 00 	sts	0x008D, r1	; 0x80008d <__TEXT_REGION_LENGTH__+0x7e008d>
     b68:	10 92 8c 00 	sts	0x008C, r1	; 0x80008c <__TEXT_REGION_LENGTH__+0x7e008c>
     b6c:	2b cf       	rjmp	.-426    	; 0x9c4 <main+0x22e>
     b6e:	92 ff       	sbrs	r25, 2
     b70:	d1 cf       	rjmp	.-94     	; 0xb14 <__stack+0x15>
     b72:	d0 93 89 00 	sts	0x0089, r29	; 0x800089 <__TEXT_REGION_LENGTH__+0x7e0089>
     b76:	c0 93 88 00 	sts	0x0088, r28	; 0x800088 <__TEXT_REGION_LENGTH__+0x7e0088>
     b7a:	10 92 8b 00 	sts	0x008B, r1	; 0x80008b <__TEXT_REGION_LENGTH__+0x7e008b>
     b7e:	10 92 8a 00 	sts	0x008A, r1	; 0x80008a <__TEXT_REGION_LENGTH__+0x7e008a>
     b82:	d0 93 8d 00 	sts	0x008D, r29	; 0x80008d <__TEXT_REGION_LENGTH__+0x7e008d>
     b86:	c0 93 8c 00 	sts	0x008C, r28	; 0x80008c <__TEXT_REGION_LENGTH__+0x7e008c>
     b8a:	1c cf       	rjmp	.-456    	; 0x9c4 <main+0x22e>
     b8c:	10 92 20 01 	sts	0x0120, r1	; 0x800120 <registerMap+0x5>
     b90:	0e ce       	rjmp	.-996    	; 0x7ae <main+0x18>

00000b92 <_GLOBAL__sub_I_WDOG>:
     b92:	62 e0       	ldi	r22, 0x02	; 2
     b94:	8b e3       	ldi	r24, 0x3B	; 59
     b96:	92 e0       	ldi	r25, 0x02	; 2
     b98:	0e 94 1a 24 	call	0x4834	; 0x4834 <_ZN8WatchdogC1Eh>
     b9c:	8c e8       	ldi	r24, 0x8C	; 140
     b9e:	91 e0       	ldi	r25, 0x01	; 1
     ba0:	0e 94 67 06 	call	0xcce	; 0xcce <_ZN7NetworkC1Ev>
     ba4:	80 e3       	ldi	r24, 0x30	; 48
     ba6:	91 e0       	ldi	r25, 0x01	; 1
     ba8:	0c 94 a2 0c 	jmp	0x1944	; 0x1944 <_ZN7VL53L0XC1Ev>

00000bac <_ZN6Analog10initializeEv>:
     bac:	fc 01       	movw	r30, r24
     bae:	87 e4       	ldi	r24, 0x47	; 71
     bb0:	80 93 7c 00 	sts	0x007C, r24	; 0x80007c <__TEXT_REGION_LENGTH__+0x7e007c>
     bb4:	8f ea       	ldi	r24, 0xAF	; 175
     bb6:	80 93 7a 00 	sts	0x007A, r24	; 0x80007a <__TEXT_REGION_LENGTH__+0x7e007a>
     bba:	80 e8       	ldi	r24, 0x80	; 128
     bbc:	80 93 7e 00 	sts	0x007E, r24	; 0x80007e <__TEXT_REGION_LENGTH__+0x7e007e>
     bc0:	81 e0       	ldi	r24, 0x01	; 1
     bc2:	80 93 7d 00 	sts	0x007D, r24	; 0x80007d <__TEXT_REGION_LENGTH__+0x7e007d>
     bc6:	86 e0       	ldi	r24, 0x06	; 6
     bc8:	80 93 7b 00 	sts	0x007B, r24	; 0x80007b <__TEXT_REGION_LENGTH__+0x7e007b>
     bcc:	16 82       	std	Z+6, r1	; 0x06
     bce:	17 82       	std	Z+7, r1	; 0x07
     bd0:	8f ef       	ldi	r24, 0xFF	; 255
     bd2:	9f ef       	ldi	r25, 0xFF	; 255
     bd4:	91 83       	std	Z+1, r25	; 0x01
     bd6:	80 83       	st	Z, r24
     bd8:	95 83       	std	Z+5, r25	; 0x05
     bda:	84 83       	std	Z+4, r24	; 0x04
     bdc:	93 83       	std	Z+3, r25	; 0x03
     bde:	82 83       	std	Z+2, r24	; 0x02
     be0:	08 95       	ret

00000be2 <_ZN6Analog8getForceEv>:
     be2:	fc 01       	movw	r30, r24
     be4:	87 81       	ldd	r24, Z+7	; 0x07
     be6:	8e 7f       	andi	r24, 0xFE	; 254
     be8:	87 83       	std	Z+7, r24	; 0x07
     bea:	80 81       	ld	r24, Z
     bec:	91 81       	ldd	r25, Z+1	; 0x01
     bee:	08 95       	ret

00000bf0 <_ZN6Analog8getVBattEv>:
     bf0:	fc 01       	movw	r30, r24
     bf2:	87 81       	ldd	r24, Z+7	; 0x07
     bf4:	8d 7f       	andi	r24, 0xFD	; 253
     bf6:	87 83       	std	Z+7, r24	; 0x07
     bf8:	82 81       	ldd	r24, Z+2	; 0x02
     bfa:	93 81       	ldd	r25, Z+3	; 0x03
     bfc:	08 95       	ret

00000bfe <_ZN6Analog14getTemperatureEv>:
     bfe:	fc 01       	movw	r30, r24
     c00:	87 81       	ldd	r24, Z+7	; 0x07
     c02:	8b 7f       	andi	r24, 0xFB	; 251
     c04:	87 83       	std	Z+7, r24	; 0x07
     c06:	84 81       	ldd	r24, Z+4	; 0x04
     c08:	95 81       	ldd	r25, Z+5	; 0x05
     c0a:	08 95       	ret

00000c0c <_ZN6Analog10getUpdatesEv>:
     c0c:	fc 01       	movw	r30, r24
     c0e:	87 81       	ldd	r24, Z+7	; 0x07
     c10:	08 95       	ret

00000c12 <__vector_29>:
     c12:	78 94       	sei
     c14:	1f 92       	push	r1
     c16:	0f 92       	push	r0
     c18:	0f b6       	in	r0, 0x3f	; 63
     c1a:	0f 92       	push	r0
     c1c:	11 24       	eor	r1, r1
     c1e:	2f 93       	push	r18
     c20:	8f 93       	push	r24
     c22:	9f 93       	push	r25
     c24:	80 91 78 00 	lds	r24, 0x0078	; 0x800078 <__TEXT_REGION_LENGTH__+0x7e0078>
     c28:	20 91 79 00 	lds	r18, 0x0079	; 0x800079 <__TEXT_REGION_LENGTH__+0x7e0079>
     c2c:	90 e0       	ldi	r25, 0x00	; 0
     c2e:	92 2b       	or	r25, r18
     c30:	20 91 86 01 	lds	r18, 0x0186	; 0x800186 <ANALOG+0x6>
     c34:	21 30       	cpi	r18, 0x01	; 1
     c36:	f1 f1       	breq	.+124    	; 0xcb4 <__vector_29+0xa2>
     c38:	58 f1       	brcs	.+86     	; 0xc90 <__vector_29+0x7e>
     c3a:	23 30       	cpi	r18, 0x03	; 3
     c3c:	89 f4       	brne	.+34     	; 0xc60 <__vector_29+0x4e>
     c3e:	90 93 85 01 	sts	0x0185, r25	; 0x800185 <ANALOG+0x5>
     c42:	80 93 84 01 	sts	0x0184, r24	; 0x800184 <ANALOG+0x4>
     c46:	80 91 87 01 	lds	r24, 0x0187	; 0x800187 <ANALOG+0x7>
     c4a:	84 60       	ori	r24, 0x04	; 4
     c4c:	80 93 87 01 	sts	0x0187, r24	; 0x800187 <ANALOG+0x7>
     c50:	87 e4       	ldi	r24, 0x47	; 71
     c52:	80 93 7c 00 	sts	0x007C, r24	; 0x80007c <__TEXT_REGION_LENGTH__+0x7e007c>
     c56:	80 91 7b 00 	lds	r24, 0x007B	; 0x80007b <__TEXT_REGION_LENGTH__+0x7e007b>
     c5a:	8f 7d       	andi	r24, 0xDF	; 223
     c5c:	80 93 7b 00 	sts	0x007B, r24	; 0x80007b <__TEXT_REGION_LENGTH__+0x7e007b>
     c60:	90 91 86 01 	lds	r25, 0x0186	; 0x800186 <ANALOG+0x6>
     c64:	9f 5f       	subi	r25, 0xFF	; 255
     c66:	8d ec       	ldi	r24, 0xCD	; 205
     c68:	98 9f       	mul	r25, r24
     c6a:	81 2d       	mov	r24, r1
     c6c:	11 24       	eor	r1, r1
     c6e:	86 95       	lsr	r24
     c70:	86 95       	lsr	r24
     c72:	28 2f       	mov	r18, r24
     c74:	22 0f       	add	r18, r18
     c76:	22 0f       	add	r18, r18
     c78:	82 0f       	add	r24, r18
     c7a:	98 1b       	sub	r25, r24
     c7c:	90 93 86 01 	sts	0x0186, r25	; 0x800186 <ANALOG+0x6>
     c80:	9f 91       	pop	r25
     c82:	8f 91       	pop	r24
     c84:	2f 91       	pop	r18
     c86:	0f 90       	pop	r0
     c88:	0f be       	out	0x3f, r0	; 63
     c8a:	0f 90       	pop	r0
     c8c:	1f 90       	pop	r1
     c8e:	18 95       	reti
     c90:	90 93 81 01 	sts	0x0181, r25	; 0x800181 <ANALOG+0x1>
     c94:	80 93 80 01 	sts	0x0180, r24	; 0x800180 <ANALOG>
     c98:	80 91 87 01 	lds	r24, 0x0187	; 0x800187 <ANALOG+0x7>
     c9c:	81 60       	ori	r24, 0x01	; 1
     c9e:	80 93 87 01 	sts	0x0187, r24	; 0x800187 <ANALOG+0x7>
     ca2:	80 e4       	ldi	r24, 0x40	; 64
     ca4:	80 93 7c 00 	sts	0x007C, r24	; 0x80007c <__TEXT_REGION_LENGTH__+0x7e007c>
     ca8:	80 91 7b 00 	lds	r24, 0x007B	; 0x80007b <__TEXT_REGION_LENGTH__+0x7e007b>
     cac:	80 62       	ori	r24, 0x20	; 32
     cae:	80 93 7b 00 	sts	0x007B, r24	; 0x80007b <__TEXT_REGION_LENGTH__+0x7e007b>
     cb2:	d6 cf       	rjmp	.-84     	; 0xc60 <__vector_29+0x4e>
     cb4:	90 93 83 01 	sts	0x0183, r25	; 0x800183 <ANALOG+0x3>
     cb8:	80 93 82 01 	sts	0x0182, r24	; 0x800182 <ANALOG+0x2>
     cbc:	80 91 87 01 	lds	r24, 0x0187	; 0x800187 <ANALOG+0x7>
     cc0:	82 60       	ori	r24, 0x02	; 2
     cc2:	80 93 87 01 	sts	0x0187, r24	; 0x800187 <ANALOG+0x7>
     cc6:	87 ec       	ldi	r24, 0xC7	; 199
     cc8:	80 93 7c 00 	sts	0x007C, r24	; 0x80007c <__TEXT_REGION_LENGTH__+0x7e007c>
     ccc:	c9 cf       	rjmp	.-110    	; 0xc60 <__vector_29+0x4e>

00000cce <_ZN7NetworkC1Ev>:
     cce:	fc 01       	movw	r30, r24
     cd0:	15 a6       	std	Z+45, r1	; 0x2d
     cd2:	16 a6       	std	Z+46, r1	; 0x2e
     cd4:	08 95       	ret

00000cd6 <_ZN7Network10initializeERKh>:
     cd6:	fc 01       	movw	r30, r24
     cd8:	10 92 c8 00 	sts	0x00C8, r1	; 0x8000c8 <__TEXT_REGION_LENGTH__+0x7e00c8>
     cdc:	10 92 cd 00 	sts	0x00CD, r1	; 0x8000cd <__TEXT_REGION_LENGTH__+0x7e00cd>
     ce0:	10 92 cc 00 	sts	0x00CC, r1	; 0x8000cc <__TEXT_REGION_LENGTH__+0x7e00cc>
     ce4:	86 e0       	ldi	r24, 0x06	; 6
     ce6:	80 93 ca 00 	sts	0x00CA, r24	; 0x8000ca <__TEXT_REGION_LENGTH__+0x7e00ca>
     cea:	a9 ec       	ldi	r26, 0xC9	; 201
     cec:	b0 e0       	ldi	r27, 0x00	; 0
     cee:	8c 91       	ld	r24, X
     cf0:	80 61       	ori	r24, 0x10	; 16
     cf2:	8c 93       	st	X, r24
     cf4:	8c 91       	ld	r24, X
     cf6:	87 7f       	andi	r24, 0xF7	; 247
     cf8:	8c 93       	st	X, r24
     cfa:	52 98       	cbi	0x0a, 2	; 10
     cfc:	5a 9a       	sbi	0x0b, 2	; 11
     cfe:	8c 91       	ld	r24, X
     d00:	80 68       	ori	r24, 0x80	; 128
     d02:	8c 93       	st	X, r24
     d04:	8c 91       	ld	r24, X
     d06:	8f 7d       	andi	r24, 0xDF	; 223
     d08:	8c 93       	st	X, r24
     d0a:	db 01       	movw	r26, r22
     d0c:	8c 91       	ld	r24, X
     d0e:	80 83       	st	Z, r24
     d10:	80 91 88 01 	lds	r24, 0x0188	; 0x800188 <TIME>
     d14:	90 91 89 01 	lds	r25, 0x0189	; 0x800189 <TIME+0x1>
     d18:	a0 91 8a 01 	lds	r26, 0x018A	; 0x80018a <TIME+0x2>
     d1c:	b0 91 8b 01 	lds	r27, 0x018B	; 0x80018b <TIME+0x3>
     d20:	83 8f       	std	Z+27, r24	; 0x1b
     d22:	94 8f       	std	Z+28, r25	; 0x1c
     d24:	a5 8f       	std	Z+29, r26	; 0x1d
     d26:	b6 8f       	std	Z+30, r27	; 0x1e
     d28:	10 a2       	std	Z+32, r1	; 0x20
     d2a:	17 8e       	std	Z+31, r1	; 0x1f
     d2c:	12 a2       	std	Z+34, r1	; 0x22
     d2e:	11 a2       	std	Z+33, r1	; 0x21
     d30:	14 a2       	std	Z+36, r1	; 0x24
     d32:	13 a2       	std	Z+35, r1	; 0x23
     d34:	16 a2       	std	Z+38, r1	; 0x26
     d36:	15 a2       	std	Z+37, r1	; 0x25
     d38:	10 a6       	std	Z+40, r1	; 0x28
     d3a:	17 a2       	std	Z+39, r1	; 0x27
     d3c:	12 a6       	std	Z+42, r1	; 0x2a
     d3e:	11 a6       	std	Z+41, r1	; 0x29
     d40:	14 a6       	std	Z+44, r1	; 0x2c
     d42:	13 a6       	std	Z+43, r1	; 0x2b
     d44:	08 95       	ret

00000d46 <_ZN7Network14assignCallbackERKhPFvS1_PS0_E>:
     d46:	0f 93       	push	r16
     d48:	1f 93       	push	r17
     d4a:	db 01       	movw	r26, r22
     d4c:	ec 91       	ld	r30, X
     d4e:	0e 2f       	mov	r16, r30
     d50:	10 e0       	ldi	r17, 0x00	; 0
     d52:	f8 01       	movw	r30, r16
     d54:	31 97       	sbiw	r30, 0x01	; 1
     d56:	e8 30       	cpi	r30, 0x08	; 8
     d58:	f1 05       	cpc	r31, r1
     d5a:	20 f0       	brcs	.+8      	; 0xd64 <_ZN7Network14assignCallbackERKhPFvS1_PS0_E+0x1e>
     d5c:	80 e0       	ldi	r24, 0x00	; 0
     d5e:	1f 91       	pop	r17
     d60:	0f 91       	pop	r16
     d62:	08 95       	ret
     d64:	e5 59       	subi	r30, 0x95	; 149
     d66:	ff 4f       	sbci	r31, 0xFF	; 255
     d68:	0c 94 68 24 	jmp	0x48d0	; 0x48d0 <__tablejump2__>
     d6c:	fc 01       	movw	r30, r24
     d6e:	50 a3       	std	Z+32, r21	; 0x20
     d70:	47 8f       	std	Z+31, r20	; 0x1f
     d72:	81 e0       	ldi	r24, 0x01	; 1
     d74:	1f 91       	pop	r17
     d76:	0f 91       	pop	r16
     d78:	08 95       	ret
     d7a:	fc 01       	movw	r30, r24
     d7c:	54 a3       	std	Z+36, r21	; 0x24
     d7e:	43 a3       	std	Z+35, r20	; 0x23
     d80:	81 e0       	ldi	r24, 0x01	; 1
     d82:	1f 91       	pop	r17
     d84:	0f 91       	pop	r16
     d86:	08 95       	ret
     d88:	dc 01       	movw	r26, r24
     d8a:	96 96       	adiw	r26, 0x26	; 38
     d8c:	5c 93       	st	X, r21
     d8e:	4e 93       	st	-X, r20
     d90:	95 97       	sbiw	r26, 0x25	; 37
     d92:	81 e0       	ldi	r24, 0x01	; 1
     d94:	1f 91       	pop	r17
     d96:	0f 91       	pop	r16
     d98:	08 95       	ret
     d9a:	fc 01       	movw	r30, r24
     d9c:	50 a7       	std	Z+40, r21	; 0x28
     d9e:	47 a3       	std	Z+39, r20	; 0x27
     da0:	81 e0       	ldi	r24, 0x01	; 1
     da2:	1f 91       	pop	r17
     da4:	0f 91       	pop	r16
     da6:	08 95       	ret
     da8:	dc 01       	movw	r26, r24
     daa:	92 96       	adiw	r26, 0x22	; 34
     dac:	5c 93       	st	X, r21
     dae:	4e 93       	st	-X, r20
     db0:	91 97       	sbiw	r26, 0x21	; 33
     db2:	81 e0       	ldi	r24, 0x01	; 1
     db4:	1f 91       	pop	r17
     db6:	0f 91       	pop	r16
     db8:	08 95       	ret
     dba:	dc 01       	movw	r26, r24
     dbc:	9a 96       	adiw	r26, 0x2a	; 42
     dbe:	5c 93       	st	X, r21
     dc0:	4e 93       	st	-X, r20
     dc2:	99 97       	sbiw	r26, 0x29	; 41
     dc4:	81 e0       	ldi	r24, 0x01	; 1
     dc6:	1f 91       	pop	r17
     dc8:	0f 91       	pop	r16
     dca:	08 95       	ret
     dcc:	fc 01       	movw	r30, r24
     dce:	54 a7       	std	Z+44, r21	; 0x2c
     dd0:	43 a7       	std	Z+43, r20	; 0x2b
     dd2:	81 e0       	ldi	r24, 0x01	; 1
     dd4:	1f 91       	pop	r17
     dd6:	0f 91       	pop	r16
     dd8:	08 95       	ret

00000dda <_ZN7Network12sendRegisterERKhS1_PS0_>:
     dda:	cf 93       	push	r28
     ddc:	df 93       	push	r29
     dde:	fc 01       	movw	r30, r24
     de0:	da 01       	movw	r26, r20
     de2:	a9 01       	movw	r20, r18
     de4:	2c 91       	ld	r18, X
     de6:	2e 5f       	subi	r18, 0xFE	; 254
     de8:	30 81       	ld	r19, Z
     dea:	eb 01       	movw	r28, r22
     dec:	88 81       	ld	r24, Y
     dee:	38 0f       	add	r19, r24
     df0:	32 0f       	add	r19, r18
     df2:	80 91 c9 00 	lds	r24, 0x00C9	; 0x8000c9 <__TEXT_REGION_LENGTH__+0x7e00c9>
     df6:	8f 7e       	andi	r24, 0xEF	; 239
     df8:	80 93 c9 00 	sts	0x00C9, r24	; 0x8000c9 <__TEXT_REGION_LENGTH__+0x7e00c9>
     dfc:	90 91 c9 00 	lds	r25, 0x00C9	; 0x8000c9 <__TEXT_REGION_LENGTH__+0x7e00c9>
     e00:	98 60       	ori	r25, 0x08	; 8
     e02:	90 93 c9 00 	sts	0x00C9, r25	; 0x8000c9 <__TEXT_REGION_LENGTH__+0x7e00c9>
     e06:	8a ea       	ldi	r24, 0xAA	; 170
     e08:	80 93 ce 00 	sts	0x00CE, r24	; 0x8000ce <__TEXT_REGION_LENGTH__+0x7e00ce>
     e0c:	90 91 c8 00 	lds	r25, 0x00C8	; 0x8000c8 <__TEXT_REGION_LENGTH__+0x7e00c8>
     e10:	95 ff       	sbrs	r25, 5
     e12:	fc cf       	rjmp	.-8      	; 0xe0c <_ZN7Network12sendRegisterERKhS1_PS0_+0x32>
     e14:	8a ea       	ldi	r24, 0xAA	; 170
     e16:	80 93 ce 00 	sts	0x00CE, r24	; 0x8000ce <__TEXT_REGION_LENGTH__+0x7e00ce>
     e1a:	90 91 c8 00 	lds	r25, 0x00C8	; 0x8000c8 <__TEXT_REGION_LENGTH__+0x7e00c8>
     e1e:	95 ff       	sbrs	r25, 5
     e20:	fc cf       	rjmp	.-8      	; 0xe1a <_ZN7Network12sendRegisterERKhS1_PS0_+0x40>
     e22:	80 81       	ld	r24, Z
     e24:	80 93 ce 00 	sts	0x00CE, r24	; 0x8000ce <__TEXT_REGION_LENGTH__+0x7e00ce>
     e28:	80 91 c8 00 	lds	r24, 0x00C8	; 0x8000c8 <__TEXT_REGION_LENGTH__+0x7e00c8>
     e2c:	85 ff       	sbrs	r24, 5
     e2e:	fc cf       	rjmp	.-8      	; 0xe28 <_ZN7Network12sendRegisterERKhS1_PS0_+0x4e>
     e30:	20 93 ce 00 	sts	0x00CE, r18	; 0x8000ce <__TEXT_REGION_LENGTH__+0x7e00ce>
     e34:	80 91 c8 00 	lds	r24, 0x00C8	; 0x8000c8 <__TEXT_REGION_LENGTH__+0x7e00c8>
     e38:	85 ff       	sbrs	r24, 5
     e3a:	fc cf       	rjmp	.-8      	; 0xe34 <_ZN7Network12sendRegisterERKhS1_PS0_+0x5a>
     e3c:	fb 01       	movw	r30, r22
     e3e:	80 81       	ld	r24, Z
     e40:	80 93 ce 00 	sts	0x00CE, r24	; 0x8000ce <__TEXT_REGION_LENGTH__+0x7e00ce>
     e44:	80 91 c8 00 	lds	r24, 0x00C8	; 0x8000c8 <__TEXT_REGION_LENGTH__+0x7e00c8>
     e48:	85 ff       	sbrs	r24, 5
     e4a:	fc cf       	rjmp	.-8      	; 0xe44 <_ZN7Network12sendRegisterERKhS1_PS0_+0x6a>
     e4c:	8c 91       	ld	r24, X
     e4e:	88 23       	and	r24, r24
     e50:	89 f0       	breq	.+34     	; 0xe74 <_ZN7Network12sendRegisterERKhS1_PS0_+0x9a>
     e52:	90 e0       	ldi	r25, 0x00	; 0
     e54:	fa 01       	movw	r30, r20
     e56:	e9 0f       	add	r30, r25
     e58:	f1 1d       	adc	r31, r1
     e5a:	80 81       	ld	r24, Z
     e5c:	80 93 ce 00 	sts	0x00CE, r24	; 0x8000ce <__TEXT_REGION_LENGTH__+0x7e00ce>
     e60:	80 91 c8 00 	lds	r24, 0x00C8	; 0x8000c8 <__TEXT_REGION_LENGTH__+0x7e00c8>
     e64:	85 ff       	sbrs	r24, 5
     e66:	fc cf       	rjmp	.-8      	; 0xe60 <_ZN7Network12sendRegisterERKhS1_PS0_+0x86>
     e68:	80 81       	ld	r24, Z
     e6a:	38 0f       	add	r19, r24
     e6c:	9f 5f       	subi	r25, 0xFF	; 255
     e6e:	8c 91       	ld	r24, X
     e70:	98 17       	cp	r25, r24
     e72:	80 f3       	brcs	.-32     	; 0xe54 <_ZN7Network12sendRegisterERKhS1_PS0_+0x7a>
     e74:	30 95       	com	r19
     e76:	30 93 ce 00 	sts	0x00CE, r19	; 0x8000ce <__TEXT_REGION_LENGTH__+0x7e00ce>
     e7a:	80 91 c8 00 	lds	r24, 0x00C8	; 0x8000c8 <__TEXT_REGION_LENGTH__+0x7e00c8>
     e7e:	85 ff       	sbrs	r24, 5
     e80:	fc cf       	rjmp	.-8      	; 0xe7a <_ZN7Network12sendRegisterERKhS1_PS0_+0xa0>
     e82:	80 91 c9 00 	lds	r24, 0x00C9	; 0x8000c9 <__TEXT_REGION_LENGTH__+0x7e00c9>
     e86:	80 61       	ori	r24, 0x10	; 16
     e88:	80 93 c9 00 	sts	0x00C9, r24	; 0x8000c9 <__TEXT_REGION_LENGTH__+0x7e00c9>
     e8c:	80 91 c9 00 	lds	r24, 0x00C9	; 0x8000c9 <__TEXT_REGION_LENGTH__+0x7e00c9>
     e90:	87 7f       	andi	r24, 0xF7	; 247
     e92:	80 93 c9 00 	sts	0x00C9, r24	; 0x8000c9 <__TEXT_REGION_LENGTH__+0x7e00c9>
     e96:	52 98       	cbi	0x0a, 2	; 10
     e98:	5a 9a       	sbi	0x0b, 2	; 11
     e9a:	df 91       	pop	r29
     e9c:	cf 91       	pop	r28
     e9e:	08 95       	ret

00000ea0 <_ZN7Network6updateEv>:
     ea0:	9f 92       	push	r9
     ea2:	af 92       	push	r10
     ea4:	bf 92       	push	r11
     ea6:	cf 92       	push	r12
     ea8:	df 92       	push	r13
     eaa:	ef 92       	push	r14
     eac:	ff 92       	push	r15
     eae:	0f 93       	push	r16
     eb0:	1f 93       	push	r17
     eb2:	cf 93       	push	r28
     eb4:	df 93       	push	r29
     eb6:	00 d0       	rcall	.+0      	; 0xeb8 <_ZN7Network6updateEv+0x18>
     eb8:	cd b7       	in	r28, 0x3d	; 61
     eba:	de b7       	in	r29, 0x3e	; 62
     ebc:	8c 01       	movw	r16, r24
     ebe:	87 e0       	ldi	r24, 0x07	; 7
     ec0:	b8 2e       	mov	r11, r24
     ec2:	78 01       	movw	r14, r16
     ec4:	82 e0       	ldi	r24, 0x02	; 2
     ec6:	e8 0e       	add	r14, r24
     ec8:	f1 1c       	adc	r15, r1
     eca:	96 e0       	ldi	r25, 0x06	; 6
     ecc:	c9 2e       	mov	r12, r25
     ece:	25 e0       	ldi	r18, 0x05	; 5
     ed0:	92 2e       	mov	r9, r18
     ed2:	34 e0       	ldi	r19, 0x04	; 4
     ed4:	d3 2e       	mov	r13, r19
     ed6:	43 e0       	ldi	r20, 0x03	; 3
     ed8:	a4 2e       	mov	r10, r20
     eda:	d8 01       	movw	r26, r16
     edc:	9d 96       	adiw	r26, 0x2d	; 45
     ede:	8c 91       	ld	r24, X
     ee0:	9d 97       	sbiw	r26, 0x2d	; 45
     ee2:	9e 96       	adiw	r26, 0x2e	; 46
     ee4:	9c 91       	ld	r25, X
     ee6:	9e 97       	sbiw	r26, 0x2e	; 46
     ee8:	89 1b       	sub	r24, r25
     eea:	8f 77       	andi	r24, 0x7F	; 127
     eec:	09 f4       	brne	.+2      	; 0xef0 <_ZN7Network6updateEv+0x50>
     eee:	85 c0       	rjmp	.+266    	; 0xffa <_ZN7Network6updateEv+0x15a>
     ef0:	9e 96       	adiw	r26, 0x2e	; 46
     ef2:	8c 91       	ld	r24, X
     ef4:	f8 01       	movw	r30, r16
     ef6:	e8 0f       	add	r30, r24
     ef8:	f1 1d       	adc	r31, r1
     efa:	27 a5       	ldd	r18, Z+47	; 0x2f
     efc:	f8 01       	movw	r30, r16
     efe:	86 a5       	ldd	r24, Z+46	; 0x2e
     f00:	8f 5f       	subi	r24, 0xFF	; 255
     f02:	8f 77       	andi	r24, 0x7F	; 127
     f04:	86 a7       	std	Z+46, r24	; 0x2e
     f06:	80 91 88 01 	lds	r24, 0x0188	; 0x800188 <TIME>
     f0a:	90 91 89 01 	lds	r25, 0x0189	; 0x800189 <TIME+0x1>
     f0e:	a0 91 8a 01 	lds	r26, 0x018A	; 0x80018a <TIME+0x2>
     f12:	b0 91 8b 01 	lds	r27, 0x018B	; 0x80018b <TIME+0x3>
     f16:	83 8f       	std	Z+27, r24	; 0x1b
     f18:	94 8f       	std	Z+28, r25	; 0x1c
     f1a:	a5 8f       	std	Z+29, r26	; 0x1d
     f1c:	b6 8f       	std	Z+30, r27	; 0x1e
     f1e:	31 81       	ldd	r19, Z+1	; 0x01
     f20:	83 2f       	mov	r24, r19
     f22:	90 e0       	ldi	r25, 0x00	; 0
     f24:	87 30       	cpi	r24, 0x07	; 7
     f26:	91 05       	cpc	r25, r1
     f28:	38 f0       	brcs	.+14     	; 0xf38 <_ZN7Network6updateEv+0x98>
     f2a:	11 82       	std	Z+1, r1	; 0x01
     f2c:	17 8a       	std	Z+23, r1	; 0x17
     f2e:	16 8a       	std	Z+22, r1	; 0x16
     f30:	11 8e       	std	Z+25, r1	; 0x19
     f32:	12 8e       	std	Z+26, r1	; 0x1a
     f34:	10 8e       	std	Z+24, r1	; 0x18
     f36:	d1 cf       	rjmp	.-94     	; 0xeda <_ZN7Network6updateEv+0x3a>
     f38:	fc 01       	movw	r30, r24
     f3a:	ed 58       	subi	r30, 0x8D	; 141
     f3c:	ff 4f       	sbci	r31, 0xFF	; 255
     f3e:	0c 94 68 24 	jmp	0x48d0	; 0x48d0 <__tablejump2__>
     f42:	f8 01       	movw	r30, r16
     f44:	80 8d       	ldd	r24, Z+24	; 0x18
     f46:	82 0f       	add	r24, r18
     f48:	80 8f       	std	Z+24, r24	; 0x18
     f4a:	87 89       	ldd	r24, Z+23	; 0x17
     f4c:	e8 0f       	add	r30, r24
     f4e:	f1 1d       	adc	r31, r1
     f50:	22 83       	std	Z+2, r18	; 0x02
     f52:	8f 5f       	subi	r24, 0xFF	; 255
     f54:	d8 01       	movw	r26, r16
     f56:	57 96       	adiw	r26, 0x17	; 23
     f58:	8c 93       	st	X, r24
     f5a:	57 97       	sbiw	r26, 0x17	; 23
     f5c:	90 e0       	ldi	r25, 0x00	; 0
     f5e:	02 96       	adiw	r24, 0x02	; 2
     f60:	56 96       	adiw	r26, 0x16	; 22
     f62:	2c 91       	ld	r18, X
     f64:	30 e0       	ldi	r19, 0x00	; 0
     f66:	82 17       	cp	r24, r18
     f68:	93 07       	cpc	r25, r19
     f6a:	0c f4       	brge	.+2      	; 0xf6e <_ZN7Network6updateEv+0xce>
     f6c:	b6 cf       	rjmp	.-148    	; 0xeda <_ZN7Network6updateEv+0x3a>
     f6e:	d8 01       	movw	r26, r16
     f70:	11 96       	adiw	r26, 0x01	; 1
     f72:	cc 92       	st	X, r12
     f74:	b2 cf       	rjmp	.-156    	; 0xeda <_ZN7Network6updateEv+0x3a>
     f76:	f8 01       	movw	r30, r16
     f78:	80 8d       	ldd	r24, Z+24	; 0x18
     f7a:	82 0f       	add	r24, r18
     f7c:	80 8f       	std	Z+24, r24	; 0x18
     f7e:	21 8f       	std	Z+25, r18	; 0x19
     f80:	21 30       	cpi	r18, 0x01	; 1
     f82:	a9 f3       	breq	.-22     	; 0xf6e <_ZN7Network6updateEv+0xce>
     f84:	8b ef       	ldi	r24, 0xFB	; 251
     f86:	82 0f       	add	r24, r18
     f88:	82 30       	cpi	r24, 0x02	; 2
     f8a:	88 f3       	brcs	.-30     	; 0xf6e <_ZN7Network6updateEv+0xce>
     f8c:	28 30       	cpi	r18, 0x08	; 8
     f8e:	79 f3       	breq	.-34     	; 0xf6e <_ZN7Network6updateEv+0xce>
     f90:	27 30       	cpi	r18, 0x07	; 7
     f92:	59 f1       	breq	.+86     	; 0xfea <_ZN7Network6updateEv+0x14a>
     f94:	91 82       	std	Z+1, r9	; 0x01
     f96:	a1 cf       	rjmp	.-190    	; 0xeda <_ZN7Network6updateEv+0x3a>
     f98:	d8 01       	movw	r26, r16
     f9a:	58 96       	adiw	r26, 0x18	; 24
     f9c:	8c 91       	ld	r24, X
     f9e:	58 97       	sbiw	r26, 0x18	; 24
     fa0:	82 0f       	add	r24, r18
     fa2:	58 96       	adiw	r26, 0x18	; 24
     fa4:	8c 93       	st	X, r24
     fa6:	58 97       	sbiw	r26, 0x18	; 24
     fa8:	56 96       	adiw	r26, 0x16	; 22
     faa:	2c 93       	st	X, r18
     fac:	56 97       	sbiw	r26, 0x16	; 22
     fae:	11 96       	adiw	r26, 0x01	; 1
     fb0:	dc 92       	st	X, r13
     fb2:	93 cf       	rjmp	.-218    	; 0xeda <_ZN7Network6updateEv+0x3a>
     fb4:	d8 01       	movw	r26, r16
     fb6:	8c 91       	ld	r24, X
     fb8:	28 17       	cp	r18, r24
     fba:	69 f1       	breq	.+90     	; 0x1016 <_ZN7Network6updateEv+0x176>
     fbc:	2e 3f       	cpi	r18, 0xFE	; 254
     fbe:	59 f1       	breq	.+86     	; 0x1016 <_ZN7Network6updateEv+0x176>
     fc0:	d8 01       	movw	r26, r16
     fc2:	11 96       	adiw	r26, 0x01	; 1
     fc4:	1c 92       	st	X, r1
     fc6:	f8 01       	movw	r30, r16
     fc8:	20 8f       	std	Z+24, r18	; 0x18
     fca:	22 8f       	std	Z+26, r18	; 0x1a
     fcc:	86 cf       	rjmp	.-244    	; 0xeda <_ZN7Network6updateEv+0x3a>
     fce:	2a 3a       	cpi	r18, 0xAA	; 170
     fd0:	81 f1       	breq	.+96     	; 0x1032 <_ZN7Network6updateEv+0x192>
     fd2:	f8 01       	movw	r30, r16
     fd4:	11 82       	std	Z+1, r1	; 0x01
     fd6:	81 cf       	rjmp	.-254    	; 0xeda <_ZN7Network6updateEv+0x3a>
     fd8:	82 2f       	mov	r24, r18
     fda:	90 e0       	ldi	r25, 0x00	; 0
     fdc:	f8 01       	movw	r30, r16
     fde:	20 8d       	ldd	r18, Z+24	; 0x18
     fe0:	20 95       	com	r18
     fe2:	30 e0       	ldi	r19, 0x00	; 0
     fe4:	82 17       	cp	r24, r18
     fe6:	93 07       	cpc	r25, r19
     fe8:	c9 f0       	breq	.+50     	; 0x101c <_ZN7Network6updateEv+0x17c>
     fea:	f8 01       	movw	r30, r16
     fec:	11 82       	std	Z+1, r1	; 0x01
     fee:	17 8a       	std	Z+23, r1	; 0x17
     ff0:	16 8a       	std	Z+22, r1	; 0x16
     ff2:	11 8e       	std	Z+25, r1	; 0x19
     ff4:	12 8e       	std	Z+26, r1	; 0x1a
     ff6:	10 8e       	std	Z+24, r1	; 0x18
     ff8:	70 cf       	rjmp	.-288    	; 0xeda <_ZN7Network6updateEv+0x3a>
     ffa:	0f 90       	pop	r0
     ffc:	0f 90       	pop	r0
     ffe:	df 91       	pop	r29
    1000:	cf 91       	pop	r28
    1002:	1f 91       	pop	r17
    1004:	0f 91       	pop	r16
    1006:	ff 90       	pop	r15
    1008:	ef 90       	pop	r14
    100a:	df 90       	pop	r13
    100c:	cf 90       	pop	r12
    100e:	bf 90       	pop	r11
    1010:	af 90       	pop	r10
    1012:	9f 90       	pop	r9
    1014:	08 95       	ret
    1016:	f8 01       	movw	r30, r16
    1018:	a1 82       	std	Z+1, r10	; 0x01
    101a:	d5 cf       	rjmp	.-86     	; 0xfc6 <_ZN7Network6updateEv+0x126>
    101c:	81 8d       	ldd	r24, Z+25	; 0x19
    101e:	90 e0       	ldi	r25, 0x00	; 0
    1020:	fc 01       	movw	r30, r24
    1022:	31 97       	sbiw	r30, 0x01	; 1
    1024:	e8 30       	cpi	r30, 0x08	; 8
    1026:	f1 05       	cpc	r31, r1
    1028:	00 f7       	brcc	.-64     	; 0xfea <_ZN7Network6updateEv+0x14a>
    102a:	e6 58       	subi	r30, 0x86	; 134
    102c:	ff 4f       	sbci	r31, 0xFF	; 255
    102e:	0c 94 68 24 	jmp	0x48d0	; 0x48d0 <__tablejump2__>
    1032:	3f 5f       	subi	r19, 0xFF	; 255
    1034:	d8 01       	movw	r26, r16
    1036:	11 96       	adiw	r26, 0x01	; 1
    1038:	3c 93       	st	X, r19
    103a:	4f cf       	rjmp	.-354    	; 0xeda <_ZN7Network6updateEv+0x3a>
    103c:	d8 01       	movw	r26, r16
    103e:	9b 96       	adiw	r26, 0x2b	; 43
    1040:	ed 91       	ld	r30, X+
    1042:	fc 91       	ld	r31, X
    1044:	9c 97       	sbiw	r26, 0x2c	; 44
    1046:	30 97       	sbiw	r30, 0x00	; 0
    1048:	81 f2       	breq	.-96     	; 0xfea <_ZN7Network6updateEv+0x14a>
    104a:	19 82       	std	Y+1, r1	; 0x01
    104c:	60 e0       	ldi	r22, 0x00	; 0
    104e:	70 e0       	ldi	r23, 0x00	; 0
    1050:	ce 01       	movw	r24, r28
    1052:	01 96       	adiw	r24, 0x01	; 1
    1054:	09 95       	icall
    1056:	c9 cf       	rjmp	.-110    	; 0xfea <_ZN7Network6updateEv+0x14a>
    1058:	d8 01       	movw	r26, r16
    105a:	99 96       	adiw	r26, 0x29	; 41
    105c:	ed 91       	ld	r30, X+
    105e:	fc 91       	ld	r31, X
    1060:	9a 97       	sbiw	r26, 0x2a	; 42
    1062:	30 97       	sbiw	r30, 0x00	; 0
    1064:	09 f4       	brne	.+2      	; 0x1068 <_ZN7Network6updateEv+0x1c8>
    1066:	73 c0       	rjmp	.+230    	; 0x114e <_ZN7Network6updateEv+0x2ae>
    1068:	19 82       	std	Y+1, r1	; 0x01
    106a:	60 e0       	ldi	r22, 0x00	; 0
    106c:	70 e0       	ldi	r23, 0x00	; 0
    106e:	ce 01       	movw	r24, r28
    1070:	01 96       	adiw	r24, 0x01	; 1
    1072:	7c 01       	movw	r14, r24
    1074:	09 95       	icall
    1076:	d8 01       	movw	r26, r16
    1078:	5a 96       	adiw	r26, 0x1a	; 26
    107a:	9c 91       	ld	r25, X
    107c:	5a 97       	sbiw	r26, 0x1a	; 26
    107e:	8c 91       	ld	r24, X
    1080:	98 17       	cp	r25, r24
    1082:	09 f4       	brne	.+2      	; 0x1086 <_ZN7Network6updateEv+0x1e6>
    1084:	57 c0       	rjmp	.+174    	; 0x1134 <_ZN7Network6updateEv+0x294>
    1086:	ff cf       	rjmp	.-2      	; 0x1086 <_ZN7Network6updateEv+0x1e6>
    1088:	d8 01       	movw	r26, r16
    108a:	91 96       	adiw	r26, 0x21	; 33
    108c:	ed 91       	ld	r30, X+
    108e:	fc 91       	ld	r31, X
    1090:	92 97       	sbiw	r26, 0x22	; 34
    1092:	30 97       	sbiw	r30, 0x00	; 0
    1094:	d1 f6       	brne	.-76     	; 0x104a <_ZN7Network6updateEv+0x1aa>
    1096:	a9 cf       	rjmp	.-174    	; 0xfea <_ZN7Network6updateEv+0x14a>
    1098:	d8 01       	movw	r26, r16
    109a:	97 96       	adiw	r26, 0x27	; 39
    109c:	ed 91       	ld	r30, X+
    109e:	fc 91       	ld	r31, X
    10a0:	98 97       	sbiw	r26, 0x28	; 40
    10a2:	30 97       	sbiw	r30, 0x00	; 0
    10a4:	41 f0       	breq	.+16     	; 0x10b6 <_ZN7Network6updateEv+0x216>
    10a6:	56 96       	adiw	r26, 0x16	; 22
    10a8:	8c 91       	ld	r24, X
    10aa:	82 50       	subi	r24, 0x02	; 2
    10ac:	89 83       	std	Y+1, r24	; 0x01
    10ae:	b7 01       	movw	r22, r14
    10b0:	ce 01       	movw	r24, r28
    10b2:	01 96       	adiw	r24, 0x01	; 1
    10b4:	09 95       	icall
    10b6:	f8 01       	movw	r30, r16
    10b8:	92 8d       	ldd	r25, Z+26	; 0x1a
    10ba:	80 81       	ld	r24, Z
    10bc:	98 13       	cpse	r25, r24
    10be:	95 cf       	rjmp	.-214    	; 0xfea <_ZN7Network6updateEv+0x14a>
    10c0:	1a 82       	std	Y+2, r1	; 0x02
    10c2:	b9 82       	std	Y+1, r11	; 0x01
    10c4:	20 e0       	ldi	r18, 0x00	; 0
    10c6:	30 e0       	ldi	r19, 0x00	; 0
    10c8:	ae 01       	movw	r20, r28
    10ca:	4e 5f       	subi	r20, 0xFE	; 254
    10cc:	5f 4f       	sbci	r21, 0xFF	; 255
    10ce:	be 01       	movw	r22, r28
    10d0:	6f 5f       	subi	r22, 0xFF	; 255
    10d2:	7f 4f       	sbci	r23, 0xFF	; 255
    10d4:	c8 01       	movw	r24, r16
    10d6:	0e 94 ed 06 	call	0xdda	; 0xdda <_ZN7Network12sendRegisterERKhS1_PS0_>
    10da:	87 cf       	rjmp	.-242    	; 0xfea <_ZN7Network6updateEv+0x14a>
    10dc:	d8 01       	movw	r26, r16
    10de:	95 96       	adiw	r26, 0x25	; 37
    10e0:	ed 91       	ld	r30, X+
    10e2:	fc 91       	ld	r31, X
    10e4:	96 97       	sbiw	r26, 0x26	; 38
    10e6:	30 97       	sbiw	r30, 0x00	; 0
    10e8:	09 f4       	brne	.+2      	; 0x10ec <_ZN7Network6updateEv+0x24c>
    10ea:	7f cf       	rjmp	.-258    	; 0xfea <_ZN7Network6updateEv+0x14a>
    10ec:	56 96       	adiw	r26, 0x16	; 22
    10ee:	8c 91       	ld	r24, X
    10f0:	82 50       	subi	r24, 0x02	; 2
    10f2:	89 83       	std	Y+1, r24	; 0x01
    10f4:	b7 01       	movw	r22, r14
    10f6:	ce 01       	movw	r24, r28
    10f8:	01 96       	adiw	r24, 0x01	; 1
    10fa:	09 95       	icall
    10fc:	76 cf       	rjmp	.-276    	; 0xfea <_ZN7Network6updateEv+0x14a>
    10fe:	f8 01       	movw	r30, r16
    1100:	92 8d       	ldd	r25, Z+26	; 0x1a
    1102:	80 81       	ld	r24, Z
    1104:	98 13       	cpse	r25, r24
    1106:	71 cf       	rjmp	.-286    	; 0xfea <_ZN7Network6updateEv+0x14a>
    1108:	03 a0       	ldd	r0, Z+35	; 0x23
    110a:	f4 a1       	ldd	r31, Z+36	; 0x24
    110c:	e0 2d       	mov	r30, r0
    110e:	30 97       	sbiw	r30, 0x00	; 0
    1110:	09 f4       	brne	.+2      	; 0x1114 <_ZN7Network6updateEv+0x274>
    1112:	6b cf       	rjmp	.-298    	; 0xfea <_ZN7Network6updateEv+0x14a>
    1114:	d8 01       	movw	r26, r16
    1116:	ea cf       	rjmp	.-44     	; 0x10ec <_ZN7Network6updateEv+0x24c>
    1118:	d8 01       	movw	r26, r16
    111a:	5f 96       	adiw	r26, 0x1f	; 31
    111c:	ed 91       	ld	r30, X+
    111e:	fc 91       	ld	r31, X
    1120:	90 97       	sbiw	r26, 0x20	; 32
    1122:	30 97       	sbiw	r30, 0x00	; 0
    1124:	41 f2       	breq	.-112    	; 0x10b6 <_ZN7Network6updateEv+0x216>
    1126:	19 82       	std	Y+1, r1	; 0x01
    1128:	60 e0       	ldi	r22, 0x00	; 0
    112a:	70 e0       	ldi	r23, 0x00	; 0
    112c:	ce 01       	movw	r24, r28
    112e:	01 96       	adiw	r24, 0x01	; 1
    1130:	09 95       	icall
    1132:	c1 cf       	rjmp	.-126    	; 0x10b6 <_ZN7Network6updateEv+0x216>
    1134:	1a 82       	std	Y+2, r1	; 0x02
    1136:	87 e0       	ldi	r24, 0x07	; 7
    1138:	89 83       	std	Y+1, r24	; 0x01
    113a:	20 e0       	ldi	r18, 0x00	; 0
    113c:	30 e0       	ldi	r19, 0x00	; 0
    113e:	ae 01       	movw	r20, r28
    1140:	4e 5f       	subi	r20, 0xFE	; 254
    1142:	5f 4f       	sbci	r21, 0xFF	; 255
    1144:	b7 01       	movw	r22, r14
    1146:	c8 01       	movw	r24, r16
    1148:	0e 94 ed 06 	call	0xdda	; 0xdda <_ZN7Network12sendRegisterERKhS1_PS0_>
    114c:	9c cf       	rjmp	.-200    	; 0x1086 <_ZN7Network6updateEv+0x1e6>
    114e:	fe 01       	movw	r30, r28
    1150:	31 96       	adiw	r30, 0x01	; 1
    1152:	7f 01       	movw	r14, r30
    1154:	90 cf       	rjmp	.-224    	; 0x1076 <_ZN7Network6updateEv+0x1d6>

00001156 <_ZN7Network12isPersonalIdERKh>:
    1156:	fc 01       	movw	r30, r24
    1158:	db 01       	movw	r26, r22
    115a:	9c 91       	ld	r25, X
    115c:	81 e0       	ldi	r24, 0x01	; 1
    115e:	9f 3f       	cpi	r25, 0xFF	; 255
    1160:	21 f0       	breq	.+8      	; 0x116a <_ZN7Network12isPersonalIdERKh+0x14>
    1162:	20 81       	ld	r18, Z
    1164:	29 13       	cpse	r18, r25
    1166:	80 e0       	ldi	r24, 0x00	; 0
    1168:	08 95       	ret
    116a:	22 8d       	ldd	r18, Z+26	; 0x1a
    116c:	90 81       	ld	r25, Z
    116e:	29 17       	cp	r18, r25
    1170:	d9 f3       	breq	.-10     	; 0x1168 <_ZN7Network12isPersonalIdERKh+0x12>
    1172:	80 e0       	ldi	r24, 0x00	; 0
    1174:	f9 cf       	rjmp	.-14     	; 0x1168 <_ZN7Network12isPersonalIdERKh+0x12>

00001176 <_ZN7Network5setIdERKh>:
    1176:	fb 01       	movw	r30, r22
    1178:	20 81       	ld	r18, Z
    117a:	fc 01       	movw	r30, r24
    117c:	20 83       	st	Z, r18
    117e:	08 95       	ret

00001180 <_ZN7Network5clearEv>:
    1180:	fc 01       	movw	r30, r24
    1182:	15 a6       	std	Z+45, r1	; 0x2d
    1184:	16 a6       	std	Z+46, r1	; 0x2e
    1186:	08 95       	ret

00001188 <__vector_25>:
    1188:	1f 92       	push	r1
    118a:	0f 92       	push	r0
    118c:	0f b6       	in	r0, 0x3f	; 63
    118e:	0f 92       	push	r0
    1190:	11 24       	eor	r1, r1
    1192:	2f 93       	push	r18
    1194:	8f 93       	push	r24
    1196:	9f 93       	push	r25
    1198:	ef 93       	push	r30
    119a:	ff 93       	push	r31
    119c:	20 91 ce 00 	lds	r18, 0x00CE	; 0x8000ce <__TEXT_REGION_LENGTH__+0x7e00ce>
    11a0:	80 91 b9 01 	lds	r24, 0x01B9	; 0x8001b9 <NETWORK+0x2d>
    11a4:	8f 5f       	subi	r24, 0xFF	; 255
    11a6:	8f 77       	andi	r24, 0x7F	; 127
    11a8:	90 91 ba 01 	lds	r25, 0x01BA	; 0x8001ba <NETWORK+0x2e>
    11ac:	89 17       	cp	r24, r25
    11ae:	41 f0       	breq	.+16     	; 0x11c0 <__vector_25+0x38>
    11b0:	e0 91 b9 01 	lds	r30, 0x01B9	; 0x8001b9 <NETWORK+0x2d>
    11b4:	f0 e0       	ldi	r31, 0x00	; 0
    11b6:	e4 57       	subi	r30, 0x74	; 116
    11b8:	fe 4f       	sbci	r31, 0xFE	; 254
    11ba:	27 a7       	std	Z+47, r18	; 0x2f
    11bc:	80 93 b9 01 	sts	0x01B9, r24	; 0x8001b9 <NETWORK+0x2d>
    11c0:	ff 91       	pop	r31
    11c2:	ef 91       	pop	r30
    11c4:	9f 91       	pop	r25
    11c6:	8f 91       	pop	r24
    11c8:	2f 91       	pop	r18
    11ca:	0f 90       	pop	r0
    11cc:	0f be       	out	0x3f, r0	; 63
    11ce:	0f 90       	pop	r0
    11d0:	1f 90       	pop	r1
    11d2:	18 95       	reti

000011d4 <_ZN4Time10initializeEv>:
    11d4:	fc 01       	movw	r30, r24
    11d6:	10 82       	st	Z, r1
    11d8:	11 82       	std	Z+1, r1	; 0x01
    11da:	12 82       	std	Z+2, r1	; 0x02
    11dc:	13 82       	std	Z+3, r1	; 0x03
    11de:	8e ef       	ldi	r24, 0xFE	; 254
    11e0:	80 93 80 00 	sts	0x0080, r24	; 0x800080 <__TEXT_REGION_LENGTH__+0x7e0080>
    11e4:	80 e8       	ldi	r24, 0x80	; 128
    11e6:	9e e3       	ldi	r25, 0x3E	; 62
    11e8:	90 93 87 00 	sts	0x0087, r25	; 0x800087 <__TEXT_REGION_LENGTH__+0x7e0087>
    11ec:	80 93 86 00 	sts	0x0086, r24	; 0x800086 <__TEXT_REGION_LENGTH__+0x7e0086>
    11f0:	81 e0       	ldi	r24, 0x01	; 1
    11f2:	80 93 6f 00 	sts	0x006F, r24	; 0x80006f <__TEXT_REGION_LENGTH__+0x7e006f>
    11f6:	89 e1       	ldi	r24, 0x19	; 25
    11f8:	80 93 81 00 	sts	0x0081, r24	; 0x800081 <__TEXT_REGION_LENGTH__+0x7e0081>
    11fc:	08 95       	ret

000011fe <_ZN4Time5delayEm>:
    11fe:	0f 93       	push	r16
    1200:	1f 93       	push	r17
    1202:	fc 01       	movw	r30, r24
    1204:	80 81       	ld	r24, Z
    1206:	91 81       	ldd	r25, Z+1	; 0x01
    1208:	a2 81       	ldd	r26, Z+2	; 0x02
    120a:	b3 81       	ldd	r27, Z+3	; 0x03
    120c:	00 81       	ld	r16, Z
    120e:	11 81       	ldd	r17, Z+1	; 0x01
    1210:	22 81       	ldd	r18, Z+2	; 0x02
    1212:	33 81       	ldd	r19, Z+3	; 0x03
    1214:	08 1b       	sub	r16, r24
    1216:	19 0b       	sbc	r17, r25
    1218:	2a 0b       	sbc	r18, r26
    121a:	3b 0b       	sbc	r19, r27
    121c:	04 17       	cp	r16, r20
    121e:	15 07       	cpc	r17, r21
    1220:	26 07       	cpc	r18, r22
    1222:	37 07       	cpc	r19, r23
    1224:	98 f3       	brcs	.-26     	; 0x120c <_ZN4Time5delayEm+0xe>
    1226:	1f 91       	pop	r17
    1228:	0f 91       	pop	r16
    122a:	08 95       	ret

0000122c <__vector_20>:
    122c:	1f 92       	push	r1
    122e:	0f 92       	push	r0
    1230:	0f b6       	in	r0, 0x3f	; 63
    1232:	0f 92       	push	r0
    1234:	11 24       	eor	r1, r1
    1236:	8f 93       	push	r24
    1238:	9f 93       	push	r25
    123a:	af 93       	push	r26
    123c:	bf 93       	push	r27
    123e:	80 91 88 01 	lds	r24, 0x0188	; 0x800188 <TIME>
    1242:	90 91 89 01 	lds	r25, 0x0189	; 0x800189 <TIME+0x1>
    1246:	a0 91 8a 01 	lds	r26, 0x018A	; 0x80018a <TIME+0x2>
    124a:	b0 91 8b 01 	lds	r27, 0x018B	; 0x80018b <TIME+0x3>
    124e:	01 96       	adiw	r24, 0x01	; 1
    1250:	a1 1d       	adc	r26, r1
    1252:	b1 1d       	adc	r27, r1
    1254:	80 93 88 01 	sts	0x0188, r24	; 0x800188 <TIME>
    1258:	90 93 89 01 	sts	0x0189, r25	; 0x800189 <TIME+0x1>
    125c:	a0 93 8a 01 	sts	0x018A, r26	; 0x80018a <TIME+0x2>
    1260:	b0 93 8b 01 	sts	0x018B, r27	; 0x80018b <TIME+0x3>
    1264:	bf 91       	pop	r27
    1266:	af 91       	pop	r26
    1268:	9f 91       	pop	r25
    126a:	8f 91       	pop	r24
    126c:	0f 90       	pop	r0
    126e:	0f be       	out	0x3f, r0	; 63
    1270:	0f 90       	pop	r0
    1272:	1f 90       	pop	r1
    1274:	18 95       	reti

00001276 <_ZN3TWI10initializeEv>:
    1276:	2b b1       	in	r18, 0x0b	; 11
    1278:	23 60       	ori	r18, 0x03	; 3
    127a:	2b b9       	out	0x0b, r18	; 11
    127c:	28 e4       	ldi	r18, 0x48	; 72
    127e:	20 93 b8 00 	sts	0x00B8, r18	; 0x8000b8 <__TEXT_REGION_LENGTH__+0x7e00b8>
    1282:	2f ef       	ldi	r18, 0xFF	; 255
    1284:	20 93 bb 00 	sts	0x00BB, r18	; 0x8000bb <__TEXT_REGION_LENGTH__+0x7e00bb>
    1288:	24 e0       	ldi	r18, 0x04	; 4
    128a:	20 93 bc 00 	sts	0x00BC, r18	; 0x8000bc <__TEXT_REGION_LENGTH__+0x7e00bc>
    128e:	fc 01       	movw	r30, r24
    1290:	ed 5b       	subi	r30, 0xBD	; 189
    1292:	ff 4f       	sbci	r31, 0xFF	; 255
    1294:	10 82       	st	Z, r1
    1296:	31 97       	sbiw	r30, 0x01	; 1
    1298:	10 82       	st	Z, r1
    129a:	08 95       	ret

0000129c <_ZN3TWI5writeERKhS1_S1_PS0_>:
    129c:	ef 92       	push	r14
    129e:	ff 92       	push	r15
    12a0:	0f 93       	push	r16
    12a2:	1f 93       	push	r17
    12a4:	cf 93       	push	r28
    12a6:	df 93       	push	r29
    12a8:	ec 01       	movw	r28, r24
    12aa:	79 01       	movw	r14, r18
    12ac:	dc 01       	movw	r26, r24
    12ae:	ad 5b       	subi	r26, 0xBD	; 189
    12b0:	bf 4f       	sbci	r27, 0xFF	; 255
    12b2:	8c 91       	ld	r24, X
    12b4:	81 11       	cpse	r24, r1
    12b6:	fd cf       	rjmp	.-6      	; 0x12b2 <_ZN3TWI5writeERKhS1_S1_PS0_+0x16>
    12b8:	81 e0       	ldi	r24, 0x01	; 1
    12ba:	8c 93       	st	X, r24
    12bc:	fb 01       	movw	r30, r22
    12be:	80 81       	ld	r24, Z
    12c0:	88 0f       	add	r24, r24
    12c2:	89 83       	std	Y+1, r24	; 0x01
    12c4:	fa 01       	movw	r30, r20
    12c6:	80 81       	ld	r24, Z
    12c8:	8a 83       	std	Y+2, r24	; 0x02
    12ca:	f7 01       	movw	r30, r14
    12cc:	80 81       	ld	r24, Z
    12ce:	88 23       	and	r24, r24
    12d0:	41 f1       	breq	.+80     	; 0x1322 <_ZN3TWI5writeERKhS1_S1_PS0_+0x86>
    12d2:	90 e0       	ldi	r25, 0x00	; 0
    12d4:	49 2f       	mov	r20, r25
    12d6:	50 e0       	ldi	r21, 0x00	; 0
    12d8:	9a 01       	movw	r18, r20
    12da:	2e 5f       	subi	r18, 0xFE	; 254
    12dc:	3f 4f       	sbci	r19, 0xFF	; 255
    12de:	40 0f       	add	r20, r16
    12e0:	51 1f       	adc	r21, r17
    12e2:	fa 01       	movw	r30, r20
    12e4:	80 81       	ld	r24, Z
    12e6:	f9 01       	movw	r30, r18
    12e8:	ec 0f       	add	r30, r28
    12ea:	fd 1f       	adc	r31, r29
    12ec:	81 83       	std	Z+1, r24	; 0x01
    12ee:	9f 5f       	subi	r25, 0xFF	; 255
    12f0:	f7 01       	movw	r30, r14
    12f2:	30 81       	ld	r19, Z
    12f4:	93 17       	cp	r25, r19
    12f6:	70 f3       	brcs	.-36     	; 0x12d4 <_ZN3TWI5writeERKhS1_S1_PS0_+0x38>
    12f8:	3e 5f       	subi	r19, 0xFE	; 254
    12fa:	fe 01       	movw	r30, r28
    12fc:	ef 5b       	subi	r30, 0xBF	; 191
    12fe:	ff 4f       	sbci	r31, 0xFF	; 255
    1300:	30 83       	st	Z, r19
    1302:	85 ea       	ldi	r24, 0xA5	; 165
    1304:	80 93 bc 00 	sts	0x00BC, r24	; 0x8000bc <__TEXT_REGION_LENGTH__+0x7e00bc>
    1308:	8c 91       	ld	r24, X
    130a:	81 11       	cpse	r24, r1
    130c:	fd cf       	rjmp	.-6      	; 0x1308 <_ZN3TWI5writeERKhS1_S1_PS0_+0x6c>
    130e:	ce 5b       	subi	r28, 0xBE	; 190
    1310:	df 4f       	sbci	r29, 0xFF	; 255
    1312:	88 81       	ld	r24, Y
    1314:	df 91       	pop	r29
    1316:	cf 91       	pop	r28
    1318:	1f 91       	pop	r17
    131a:	0f 91       	pop	r16
    131c:	ff 90       	pop	r15
    131e:	ef 90       	pop	r14
    1320:	08 95       	ret
    1322:	32 e0       	ldi	r19, 0x02	; 2
    1324:	ea cf       	rjmp	.-44     	; 0x12fa <_ZN3TWI5writeERKhS1_S1_PS0_+0x5e>

00001326 <_ZN3TWI4readERKhS1_S1_Ph>:
    1326:	ef 92       	push	r14
    1328:	ff 92       	push	r15
    132a:	0f 93       	push	r16
    132c:	1f 93       	push	r17
    132e:	cf 93       	push	r28
    1330:	df 93       	push	r29
    1332:	dc 01       	movw	r26, r24
    1334:	79 01       	movw	r14, r18
    1336:	fc 01       	movw	r30, r24
    1338:	ed 5b       	subi	r30, 0xBD	; 189
    133a:	ff 4f       	sbci	r31, 0xFF	; 255
    133c:	90 81       	ld	r25, Z
    133e:	91 11       	cpse	r25, r1
    1340:	fd cf       	rjmp	.-6      	; 0x133c <_ZN3TWI4readERKhS1_S1_Ph+0x16>
    1342:	81 e0       	ldi	r24, 0x01	; 1
    1344:	80 83       	st	Z, r24
    1346:	eb 01       	movw	r28, r22
    1348:	88 81       	ld	r24, Y
    134a:	88 0f       	add	r24, r24
    134c:	11 96       	adiw	r26, 0x01	; 1
    134e:	8c 93       	st	X, r24
    1350:	11 97       	sbiw	r26, 0x01	; 1
    1352:	ea 01       	movw	r28, r20
    1354:	88 81       	ld	r24, Y
    1356:	12 96       	adiw	r26, 0x02	; 2
    1358:	8c 93       	st	X, r24
    135a:	12 97       	sbiw	r26, 0x02	; 2
    135c:	9d 01       	movw	r18, r26
    135e:	2f 5b       	subi	r18, 0xBF	; 191
    1360:	3f 4f       	sbci	r19, 0xFF	; 255
    1362:	82 e0       	ldi	r24, 0x02	; 2
    1364:	e9 01       	movw	r28, r18
    1366:	88 83       	st	Y, r24
    1368:	85 ea       	ldi	r24, 0xA5	; 165
    136a:	80 93 bc 00 	sts	0x00BC, r24	; 0x8000bc <__TEXT_REGION_LENGTH__+0x7e00bc>
    136e:	90 81       	ld	r25, Z
    1370:	91 11       	cpse	r25, r1
    1372:	fd cf       	rjmp	.-6      	; 0x136e <_ZN3TWI4readERKhS1_S1_Ph+0x48>
    1374:	82 e0       	ldi	r24, 0x02	; 2
    1376:	80 83       	st	Z, r24
    1378:	eb 01       	movw	r28, r22
    137a:	88 81       	ld	r24, Y
    137c:	88 0f       	add	r24, r24
    137e:	81 60       	ori	r24, 0x01	; 1
    1380:	11 96       	adiw	r26, 0x01	; 1
    1382:	8c 93       	st	X, r24
    1384:	11 97       	sbiw	r26, 0x01	; 1
    1386:	e7 01       	movw	r28, r14
    1388:	88 81       	ld	r24, Y
    138a:	e9 01       	movw	r28, r18
    138c:	88 83       	st	Y, r24
    138e:	85 ea       	ldi	r24, 0xA5	; 165
    1390:	80 93 bc 00 	sts	0x00BC, r24	; 0x8000bc <__TEXT_REGION_LENGTH__+0x7e00bc>
    1394:	90 81       	ld	r25, Z
    1396:	91 11       	cpse	r25, r1
    1398:	fd cf       	rjmp	.-6      	; 0x1394 <_ZN3TWI4readERKhS1_S1_Ph+0x6e>
    139a:	9d 01       	movw	r18, r26
    139c:	2e 5b       	subi	r18, 0xBE	; 190
    139e:	3f 4f       	sbci	r19, 0xFF	; 255
    13a0:	f9 01       	movw	r30, r18
    13a2:	80 81       	ld	r24, Z
    13a4:	81 11       	cpse	r24, r1
    13a6:	14 c0       	rjmp	.+40     	; 0x13d0 <_ZN3TWI4readERKhS1_S1_Ph+0xaa>
    13a8:	f7 01       	movw	r30, r14
    13aa:	80 81       	ld	r24, Z
    13ac:	88 23       	and	r24, r24
    13ae:	81 f0       	breq	.+32     	; 0x13d0 <_ZN3TWI4readERKhS1_S1_Ph+0xaa>
    13b0:	90 e0       	ldi	r25, 0x00	; 0
    13b2:	49 2f       	mov	r20, r25
    13b4:	50 e0       	ldi	r21, 0x00	; 0
    13b6:	fd 01       	movw	r30, r26
    13b8:	e4 0f       	add	r30, r20
    13ba:	f5 1f       	adc	r31, r21
    13bc:	81 81       	ldd	r24, Z+1	; 0x01
    13be:	f8 01       	movw	r30, r16
    13c0:	e4 0f       	add	r30, r20
    13c2:	f5 1f       	adc	r31, r21
    13c4:	80 83       	st	Z, r24
    13c6:	9f 5f       	subi	r25, 0xFF	; 255
    13c8:	e7 01       	movw	r28, r14
    13ca:	88 81       	ld	r24, Y
    13cc:	98 17       	cp	r25, r24
    13ce:	88 f3       	brcs	.-30     	; 0x13b2 <_ZN3TWI4readERKhS1_S1_Ph+0x8c>
    13d0:	e9 01       	movw	r28, r18
    13d2:	88 81       	ld	r24, Y
    13d4:	df 91       	pop	r29
    13d6:	cf 91       	pop	r28
    13d8:	1f 91       	pop	r17
    13da:	0f 91       	pop	r16
    13dc:	ff 90       	pop	r15
    13de:	ef 90       	pop	r14
    13e0:	08 95       	ret

000013e2 <_ZN3TWI4pingERKh>:
    13e2:	cf 93       	push	r28
    13e4:	df 93       	push	r29
    13e6:	dc 01       	movw	r26, r24
    13e8:	fc 01       	movw	r30, r24
    13ea:	ed 5b       	subi	r30, 0xBD	; 189
    13ec:	ff 4f       	sbci	r31, 0xFF	; 255
    13ee:	90 81       	ld	r25, Z
    13f0:	91 11       	cpse	r25, r1
    13f2:	fd cf       	rjmp	.-6      	; 0x13ee <_ZN3TWI4pingERKh+0xc>
    13f4:	91 e0       	ldi	r25, 0x01	; 1
    13f6:	90 83       	st	Z, r25
    13f8:	eb 01       	movw	r28, r22
    13fa:	88 81       	ld	r24, Y
    13fc:	88 0f       	add	r24, r24
    13fe:	11 96       	adiw	r26, 0x01	; 1
    1400:	8c 93       	st	X, r24
    1402:	11 97       	sbiw	r26, 0x01	; 1
    1404:	ed 01       	movw	r28, r26
    1406:	cf 5b       	subi	r28, 0xBF	; 191
    1408:	df 4f       	sbci	r29, 0xFF	; 255
    140a:	98 83       	st	Y, r25
    140c:	85 ea       	ldi	r24, 0xA5	; 165
    140e:	80 93 bc 00 	sts	0x00BC, r24	; 0x8000bc <__TEXT_REGION_LENGTH__+0x7e00bc>
    1412:	90 81       	ld	r25, Z
    1414:	91 11       	cpse	r25, r1
    1416:	fd cf       	rjmp	.-6      	; 0x1412 <_ZN3TWI4pingERKh+0x30>
    1418:	ae 5b       	subi	r26, 0xBE	; 190
    141a:	bf 4f       	sbci	r27, 0xFF	; 255
    141c:	9c 91       	ld	r25, X
    141e:	81 e0       	ldi	r24, 0x01	; 1
    1420:	91 11       	cpse	r25, r1
    1422:	80 e0       	ldi	r24, 0x00	; 0
    1424:	df 91       	pop	r29
    1426:	cf 91       	pop	r28
    1428:	08 95       	ret

0000142a <__vector_36>:
    142a:	1f 92       	push	r1
    142c:	0f 92       	push	r0
    142e:	0f b6       	in	r0, 0x3f	; 63
    1430:	0f 92       	push	r0
    1432:	11 24       	eor	r1, r1
    1434:	2f 93       	push	r18
    1436:	3f 93       	push	r19
    1438:	8f 93       	push	r24
    143a:	9f 93       	push	r25
    143c:	ef 93       	push	r30
    143e:	ff 93       	push	r31
    1440:	80 91 b9 00 	lds	r24, 0x00B9	; 0x8000b9 <__TEXT_REGION_LENGTH__+0x7e00b9>
    1444:	88 32       	cpi	r24, 0x28	; 40
    1446:	19 f1       	breq	.+70     	; 0x148e <__vector_36+0x64>
    1448:	b8 f0       	brcs	.+46     	; 0x1478 <__vector_36+0x4e>
    144a:	80 35       	cpi	r24, 0x50	; 80
    144c:	09 f4       	brne	.+2      	; 0x1450 <__vector_36+0x26>
    144e:	4c c0       	rjmp	.+152    	; 0x14e8 <__vector_36+0xbe>
    1450:	88 35       	cpi	r24, 0x58	; 88
    1452:	09 f4       	brne	.+2      	; 0x1456 <__vector_36+0x2c>
    1454:	73 c0       	rjmp	.+230    	; 0x153c <__vector_36+0x112>
    1456:	80 34       	cpi	r24, 0x40	; 64
    1458:	09 f0       	breq	.+2      	; 0x145c <__vector_36+0x32>
    145a:	56 c0       	rjmp	.+172    	; 0x1508 <__vector_36+0xde>
    145c:	20 91 3c 01 	lds	r18, 0x013C	; 0x80013c <I2C>
    1460:	80 91 7d 01 	lds	r24, 0x017D	; 0x80017d <I2C+0x41>
    1464:	30 e0       	ldi	r19, 0x00	; 0
    1466:	90 e0       	ldi	r25, 0x00	; 0
    1468:	01 97       	sbiw	r24, 0x01	; 1
    146a:	28 17       	cp	r18, r24
    146c:	39 07       	cpc	r19, r25
    146e:	c4 f5       	brge	.+112    	; 0x14e0 <__vector_36+0xb6>
    1470:	85 ec       	ldi	r24, 0xC5	; 197
    1472:	80 93 bc 00 	sts	0x00BC, r24	; 0x8000bc <__TEXT_REGION_LENGTH__+0x7e00bc>
    1476:	18 c0       	rjmp	.+48     	; 0x14a8 <__vector_36+0x7e>
    1478:	80 31       	cpi	r24, 0x10	; 16
    147a:	09 f4       	brne	.+2      	; 0x147e <__vector_36+0x54>
    147c:	4f c0       	rjmp	.+158    	; 0x151c <__vector_36+0xf2>
    147e:	88 31       	cpi	r24, 0x18	; 24
    1480:	09 f0       	breq	.+2      	; 0x1484 <__vector_36+0x5a>
    1482:	40 c0       	rjmp	.+128    	; 0x1504 <__vector_36+0xda>
    1484:	80 91 3c 01 	lds	r24, 0x013C	; 0x80013c <I2C>
    1488:	8f 5f       	subi	r24, 0xFF	; 255
    148a:	80 93 3c 01 	sts	0x013C, r24	; 0x80013c <I2C>
    148e:	90 91 3c 01 	lds	r25, 0x013C	; 0x80013c <I2C>
    1492:	80 91 7d 01 	lds	r24, 0x017D	; 0x80017d <I2C+0x41>
    1496:	98 17       	cp	r25, r24
    1498:	90 f0       	brcs	.+36     	; 0x14be <__vector_36+0x94>
    149a:	10 92 7e 01 	sts	0x017E, r1	; 0x80017e <I2C+0x42>
    149e:	10 92 7f 01 	sts	0x017F, r1	; 0x80017f <I2C+0x43>
    14a2:	85 e9       	ldi	r24, 0x95	; 149
    14a4:	80 93 bc 00 	sts	0x00BC, r24	; 0x8000bc <__TEXT_REGION_LENGTH__+0x7e00bc>
    14a8:	ff 91       	pop	r31
    14aa:	ef 91       	pop	r30
    14ac:	9f 91       	pop	r25
    14ae:	8f 91       	pop	r24
    14b0:	3f 91       	pop	r19
    14b2:	2f 91       	pop	r18
    14b4:	0f 90       	pop	r0
    14b6:	0f be       	out	0x3f, r0	; 63
    14b8:	0f 90       	pop	r0
    14ba:	1f 90       	pop	r1
    14bc:	18 95       	reti
    14be:	e0 91 3c 01 	lds	r30, 0x013C	; 0x80013c <I2C>
    14c2:	f0 e0       	ldi	r31, 0x00	; 0
    14c4:	e4 5c       	subi	r30, 0xC4	; 196
    14c6:	fe 4f       	sbci	r31, 0xFE	; 254
    14c8:	81 81       	ldd	r24, Z+1	; 0x01
    14ca:	80 93 bb 00 	sts	0x00BB, r24	; 0x8000bb <__TEXT_REGION_LENGTH__+0x7e00bb>
    14ce:	80 91 3c 01 	lds	r24, 0x013C	; 0x80013c <I2C>
    14d2:	8f 5f       	subi	r24, 0xFF	; 255
    14d4:	80 93 3c 01 	sts	0x013C, r24	; 0x80013c <I2C>
    14d8:	85 e8       	ldi	r24, 0x85	; 133
    14da:	80 93 bc 00 	sts	0x00BC, r24	; 0x8000bc <__TEXT_REGION_LENGTH__+0x7e00bc>
    14de:	e4 cf       	rjmp	.-56     	; 0x14a8 <__vector_36+0x7e>
    14e0:	85 e8       	ldi	r24, 0x85	; 133
    14e2:	80 93 bc 00 	sts	0x00BC, r24	; 0x8000bc <__TEXT_REGION_LENGTH__+0x7e00bc>
    14e6:	e0 cf       	rjmp	.-64     	; 0x14a8 <__vector_36+0x7e>
    14e8:	e0 91 3c 01 	lds	r30, 0x013C	; 0x80013c <I2C>
    14ec:	f0 e0       	ldi	r31, 0x00	; 0
    14ee:	80 91 bb 00 	lds	r24, 0x00BB	; 0x8000bb <__TEXT_REGION_LENGTH__+0x7e00bb>
    14f2:	e4 5c       	subi	r30, 0xC4	; 196
    14f4:	fe 4f       	sbci	r31, 0xFE	; 254
    14f6:	81 83       	std	Z+1, r24	; 0x01
    14f8:	80 91 3c 01 	lds	r24, 0x013C	; 0x80013c <I2C>
    14fc:	8f 5f       	subi	r24, 0xFF	; 255
    14fe:	80 93 3c 01 	sts	0x013C, r24	; 0x80013c <I2C>
    1502:	ac cf       	rjmp	.-168    	; 0x145c <__vector_36+0x32>
    1504:	88 30       	cpi	r24, 0x08	; 8
    1506:	51 f0       	breq	.+20     	; 0x151c <__vector_36+0xf2>
    1508:	85 e9       	ldi	r24, 0x95	; 149
    150a:	80 93 bc 00 	sts	0x00BC, r24	; 0x8000bc <__TEXT_REGION_LENGTH__+0x7e00bc>
    150e:	80 91 b9 00 	lds	r24, 0x00B9	; 0x8000b9 <__TEXT_REGION_LENGTH__+0x7e00b9>
    1512:	80 93 7e 01 	sts	0x017E, r24	; 0x80017e <I2C+0x42>
    1516:	10 92 7f 01 	sts	0x017F, r1	; 0x80017f <I2C+0x43>
    151a:	c6 cf       	rjmp	.-116    	; 0x14a8 <__vector_36+0x7e>
    151c:	10 92 3c 01 	sts	0x013C, r1	; 0x80013c <I2C>
    1520:	e0 91 3c 01 	lds	r30, 0x013C	; 0x80013c <I2C>
    1524:	f0 e0       	ldi	r31, 0x00	; 0
    1526:	e4 5c       	subi	r30, 0xC4	; 196
    1528:	fe 4f       	sbci	r31, 0xFE	; 254
    152a:	81 81       	ldd	r24, Z+1	; 0x01
    152c:	80 93 bb 00 	sts	0x00BB, r24	; 0x8000bb <__TEXT_REGION_LENGTH__+0x7e00bb>
    1530:	10 92 7e 01 	sts	0x017E, r1	; 0x80017e <I2C+0x42>
    1534:	85 e8       	ldi	r24, 0x85	; 133
    1536:	80 93 bc 00 	sts	0x00BC, r24	; 0x8000bc <__TEXT_REGION_LENGTH__+0x7e00bc>
    153a:	b6 cf       	rjmp	.-148    	; 0x14a8 <__vector_36+0x7e>
    153c:	e0 91 3c 01 	lds	r30, 0x013C	; 0x80013c <I2C>
    1540:	f0 e0       	ldi	r31, 0x00	; 0
    1542:	80 91 bb 00 	lds	r24, 0x00BB	; 0x8000bb <__TEXT_REGION_LENGTH__+0x7e00bb>
    1546:	e4 5c       	subi	r30, 0xC4	; 196
    1548:	fe 4f       	sbci	r31, 0xFE	; 254
    154a:	81 83       	std	Z+1, r24	; 0x01
    154c:	a6 cf       	rjmp	.-180    	; 0x149a <__vector_36+0x70>

0000154e <_ZN7VL53L0X26setMeasurementTimingBudgetEm.part.3>:
    154e:	2f 92       	push	r2
    1550:	3f 92       	push	r3
    1552:	4f 92       	push	r4
    1554:	5f 92       	push	r5
    1556:	6f 92       	push	r6
    1558:	7f 92       	push	r7
    155a:	8f 92       	push	r8
    155c:	9f 92       	push	r9
    155e:	af 92       	push	r10
    1560:	bf 92       	push	r11
    1562:	cf 92       	push	r12
    1564:	df 92       	push	r13
    1566:	ef 92       	push	r14
    1568:	ff 92       	push	r15
    156a:	0f 93       	push	r16
    156c:	1f 93       	push	r17
    156e:	cf 93       	push	r28
    1570:	df 93       	push	r29
    1572:	cd b7       	in	r28, 0x3d	; 61
    1574:	de b7       	in	r29, 0x3e	; 62
    1576:	6a 97       	sbiw	r28, 0x1a	; 26
    1578:	0f b6       	in	r0, 0x3f	; 63
    157a:	f8 94       	cli
    157c:	de bf       	out	0x3e, r29	; 62
    157e:	0f be       	out	0x3f, r0	; 63
    1580:	cd bf       	out	0x3d, r28	; 61
    1582:	1c 01       	movw	r2, r24
    1584:	4c 8b       	std	Y+20, r20	; 0x14
    1586:	5d 8b       	std	Y+21, r21	; 0x15
    1588:	6e 8b       	std	Y+22, r22	; 0x16
    158a:	7f 8b       	std	Y+23, r23	; 0x17
    158c:	44 24       	eor	r4, r4
    158e:	43 94       	inc	r4
    1590:	48 86       	std	Y+8, r4	; 0x08
    1592:	49 82       	std	Y+1, r4	; 0x01
    1594:	3c 01       	movw	r6, r24
    1596:	2f ef       	ldi	r18, 0xFF	; 255
    1598:	62 1a       	sub	r6, r18
    159a:	72 0a       	sbc	r7, r18
    159c:	8e 01       	movw	r16, r28
    159e:	0d 5f       	subi	r16, 0xFD	; 253
    15a0:	1f 4f       	sbci	r17, 0xFF	; 255
    15a2:	9e 01       	movw	r18, r28
    15a4:	2f 5f       	subi	r18, 0xFF	; 255
    15a6:	3f 4f       	sbci	r19, 0xFF	; 255
    15a8:	ae 01       	movw	r20, r28
    15aa:	48 5f       	subi	r20, 0xF8	; 248
    15ac:	5f 4f       	sbci	r21, 0xFF	; 255
    15ae:	b3 01       	movw	r22, r6
    15b0:	8c e3       	ldi	r24, 0x3C	; 60
    15b2:	91 e0       	ldi	r25, 0x01	; 1
    15b4:	0e 94 93 09 	call	0x1326	; 0x1326 <_ZN3TWI4readERKhS1_S1_Ph>
    15b8:	d1 01       	movw	r26, r2
    15ba:	8c 93       	st	X, r24
    15bc:	5b 80       	ldd	r5, Y+3	; 0x03
    15be:	b5 2d       	mov	r27, r5
    15c0:	b8 70       	andi	r27, 0x08	; 8
    15c2:	b8 8f       	std	Y+24, r27	; 0x18
    15c4:	e5 2d       	mov	r30, r5
    15c6:	e0 74       	andi	r30, 0x40	; 64
    15c8:	eb 8b       	std	Y+19, r30	; 0x13
    15ca:	80 e5       	ldi	r24, 0x50	; 80
    15cc:	8c 83       	std	Y+4, r24	; 0x04
    15ce:	49 82       	std	Y+1, r4	; 0x01
    15d0:	9e 01       	movw	r18, r28
    15d2:	2f 5f       	subi	r18, 0xFF	; 255
    15d4:	3f 4f       	sbci	r19, 0xFF	; 255
    15d6:	ae 01       	movw	r20, r28
    15d8:	4c 5f       	subi	r20, 0xFC	; 252
    15da:	5f 4f       	sbci	r21, 0xFF	; 255
    15dc:	b3 01       	movw	r22, r6
    15de:	8c e3       	ldi	r24, 0x3C	; 60
    15e0:	91 e0       	ldi	r25, 0x01	; 1
    15e2:	0e 94 93 09 	call	0x1326	; 0x1326 <_ZN3TWI4readERKhS1_S1_Ph>
    15e6:	d1 01       	movw	r26, r2
    15e8:	8c 93       	st	X, r24
    15ea:	fb 80       	ldd	r15, Y+3	; 0x03
    15ec:	86 e4       	ldi	r24, 0x46	; 70
    15ee:	89 87       	std	Y+9, r24	; 0x09
    15f0:	49 82       	std	Y+1, r4	; 0x01
    15f2:	9e 01       	movw	r18, r28
    15f4:	2f 5f       	subi	r18, 0xFF	; 255
    15f6:	3f 4f       	sbci	r19, 0xFF	; 255
    15f8:	ae 01       	movw	r20, r28
    15fa:	47 5f       	subi	r20, 0xF7	; 247
    15fc:	5f 4f       	sbci	r21, 0xFF	; 255
    15fe:	b3 01       	movw	r22, r6
    1600:	8c e3       	ldi	r24, 0x3C	; 60
    1602:	91 e0       	ldi	r25, 0x01	; 1
    1604:	0e 94 93 09 	call	0x1326	; 0x1326 <_ZN3TWI4readERKhS1_S1_Ph>
    1608:	f1 01       	movw	r30, r2
    160a:	80 83       	st	Z, r24
    160c:	1b 81       	ldd	r17, Y+3	; 0x03
    160e:	f3 94       	inc	r15
    1610:	af 2d       	mov	r26, r15
    1612:	aa 0f       	add	r26, r26
    1614:	b0 e0       	ldi	r27, 0x00	; 0
    1616:	20 e0       	ldi	r18, 0x00	; 0
    1618:	3f e2       	ldi	r19, 0x2F	; 47
    161a:	4a e3       	ldi	r20, 0x3A	; 58
    161c:	50 e0       	ldi	r21, 0x00	; 0
    161e:	0e 94 6e 24 	call	0x48dc	; 0x48dc <__muluhisi3>
    1622:	4b 01       	movw	r8, r22
    1624:	5c 01       	movw	r10, r24
    1626:	f4 ef       	ldi	r31, 0xF4	; 244
    1628:	8f 0e       	add	r8, r31
    162a:	f1 e0       	ldi	r31, 0x01	; 1
    162c:	9f 1e       	adc	r9, r31
    162e:	a1 1c       	adc	r10, r1
    1630:	b1 1c       	adc	r11, r1
    1632:	e8 ee       	ldi	r30, 0xE8	; 232
    1634:	ce 2e       	mov	r12, r30
    1636:	e3 e0       	ldi	r30, 0x03	; 3
    1638:	de 2e       	mov	r13, r30
    163a:	e1 2c       	mov	r14, r1
    163c:	f1 2c       	mov	r15, r1
    163e:	c5 01       	movw	r24, r10
    1640:	b4 01       	movw	r22, r8
    1642:	a7 01       	movw	r20, r14
    1644:	96 01       	movw	r18, r12
    1646:	0e 94 46 24 	call	0x488c	; 0x488c <__udivmodsi4>
    164a:	2b 87       	std	Y+11, r18	; 0x0b
    164c:	3c 87       	std	Y+12, r19	; 0x0c
    164e:	4d 87       	std	Y+13, r20	; 0x0d
    1650:	5e 87       	std	Y+14, r21	; 0x0e
    1652:	c5 01       	movw	r24, r10
    1654:	b4 01       	movw	r22, r8
    1656:	20 ed       	ldi	r18, 0xD0	; 208
    1658:	37 e0       	ldi	r19, 0x07	; 7
    165a:	40 e0       	ldi	r20, 0x00	; 0
    165c:	50 e0       	ldi	r21, 0x00	; 0
    165e:	0e 94 46 24 	call	0x488c	; 0x488c <__udivmodsi4>
    1662:	2f 87       	std	Y+15, r18	; 0x0f
    1664:	38 8b       	std	Y+16, r19	; 0x10
    1666:	49 8b       	std	Y+17, r20	; 0x11
    1668:	5a 8b       	std	Y+18, r21	; 0x12
    166a:	a1 2f       	mov	r26, r17
    166c:	b0 e0       	ldi	r27, 0x00	; 0
    166e:	11 96       	adiw	r26, 0x01	; 1
    1670:	2b 85       	ldd	r18, Y+11	; 0x0b
    1672:	3c 85       	ldd	r19, Y+12	; 0x0c
    1674:	4d 85       	ldd	r20, Y+13	; 0x0d
    1676:	5e 85       	ldd	r21, Y+14	; 0x0e
    1678:	0e 94 79 24 	call	0x48f2	; 0x48f2 <__mulshisi3>
    167c:	2f 85       	ldd	r18, Y+15	; 0x0f
    167e:	38 89       	ldd	r19, Y+16	; 0x10
    1680:	49 89       	ldd	r20, Y+17	; 0x11
    1682:	5a 89       	ldd	r21, Y+18	; 0x12
    1684:	62 0f       	add	r22, r18
    1686:	73 1f       	adc	r23, r19
    1688:	84 1f       	adc	r24, r20
    168a:	95 1f       	adc	r25, r21
    168c:	a7 01       	movw	r20, r14
    168e:	96 01       	movw	r18, r12
    1690:	0e 94 46 24 	call	0x488c	; 0x488c <__udivmodsi4>
    1694:	69 01       	movw	r12, r18
    1696:	7a 01       	movw	r14, r20
    1698:	81 e5       	ldi	r24, 0x51	; 81
    169a:	8d 83       	std	Y+5, r24	; 0x05
    169c:	f2 e0       	ldi	r31, 0x02	; 2
    169e:	bf 2e       	mov	r11, r31
    16a0:	bb 82       	std	Y+3, r11	; 0x03
    16a2:	8e 01       	movw	r16, r28
    16a4:	0f 5f       	subi	r16, 0xFF	; 255
    16a6:	1f 4f       	sbci	r17, 0xFF	; 255
    16a8:	9e 01       	movw	r18, r28
    16aa:	2d 5f       	subi	r18, 0xFD	; 253
    16ac:	3f 4f       	sbci	r19, 0xFF	; 255
    16ae:	ae 01       	movw	r20, r28
    16b0:	4b 5f       	subi	r20, 0xFB	; 251
    16b2:	5f 4f       	sbci	r21, 0xFF	; 255
    16b4:	b3 01       	movw	r22, r6
    16b6:	8c e3       	ldi	r24, 0x3C	; 60
    16b8:	91 e0       	ldi	r25, 0x01	; 1
    16ba:	0e 94 93 09 	call	0x1326	; 0x1326 <_ZN3TWI4readERKhS1_S1_Ph>
    16be:	d1 01       	movw	r26, r2
    16c0:	8c 93       	st	X, r24
    16c2:	89 81       	ldd	r24, Y+1	; 0x01
    16c4:	9a 81       	ldd	r25, Y+2	; 0x02
    16c6:	98 27       	eor	r25, r24
    16c8:	89 27       	eor	r24, r25
    16ca:	98 27       	eor	r25, r24
    16cc:	9c 01       	movw	r18, r24
    16ce:	33 27       	eor	r19, r19
    16d0:	f9 01       	movw	r30, r18
    16d2:	02 c0       	rjmp	.+4      	; 0x16d8 <_ZN7VL53L0X26setMeasurementTimingBudgetEm.part.3+0x18a>
    16d4:	ee 0f       	add	r30, r30
    16d6:	ff 1f       	adc	r31, r31
    16d8:	9a 95       	dec	r25
    16da:	e2 f7       	brpl	.-8      	; 0x16d4 <_ZN7VL53L0X26setMeasurementTimingBudgetEm.part.3+0x186>
    16dc:	9f 01       	movw	r18, r30
    16de:	2f 5f       	subi	r18, 0xFF	; 255
    16e0:	3f 4f       	sbci	r19, 0xFF	; 255
    16e2:	3a 8f       	std	Y+26, r19	; 0x1a
    16e4:	29 8f       	std	Y+25, r18	; 0x19
    16e6:	80 e7       	ldi	r24, 0x70	; 112
    16e8:	8e 83       	std	Y+6, r24	; 0x06
    16ea:	49 82       	std	Y+1, r4	; 0x01
    16ec:	0e 5f       	subi	r16, 0xFE	; 254
    16ee:	1f 4f       	sbci	r17, 0xFF	; 255
    16f0:	9e 01       	movw	r18, r28
    16f2:	2f 5f       	subi	r18, 0xFF	; 255
    16f4:	3f 4f       	sbci	r19, 0xFF	; 255
    16f6:	ae 01       	movw	r20, r28
    16f8:	4a 5f       	subi	r20, 0xFA	; 250
    16fa:	5f 4f       	sbci	r21, 0xFF	; 255
    16fc:	b3 01       	movw	r22, r6
    16fe:	8c e3       	ldi	r24, 0x3C	; 60
    1700:	91 e0       	ldi	r25, 0x01	; 1
    1702:	0e 94 93 09 	call	0x1326	; 0x1326 <_ZN3TWI4readERKhS1_S1_Ph>
    1706:	d1 01       	movw	r26, r2
    1708:	8c 93       	st	X, r24
    170a:	4b 80       	ldd	r4, Y+3	; 0x03
    170c:	81 e7       	ldi	r24, 0x71	; 113
    170e:	8f 83       	std	Y+7, r24	; 0x07
    1710:	bb 82       	std	Y+3, r11	; 0x03
    1712:	02 50       	subi	r16, 0x02	; 2
    1714:	11 09       	sbc	r17, r1
    1716:	9e 01       	movw	r18, r28
    1718:	2d 5f       	subi	r18, 0xFD	; 253
    171a:	3f 4f       	sbci	r19, 0xFF	; 255
    171c:	ae 01       	movw	r20, r28
    171e:	49 5f       	subi	r20, 0xF9	; 249
    1720:	5f 4f       	sbci	r21, 0xFF	; 255
    1722:	b3 01       	movw	r22, r6
    1724:	8c e3       	ldi	r24, 0x3C	; 60
    1726:	91 e0       	ldi	r25, 0x01	; 1
    1728:	0e 94 93 09 	call	0x1326	; 0x1326 <_ZN3TWI4readERKhS1_S1_Ph>
    172c:	f1 01       	movw	r30, r2
    172e:	80 83       	st	Z, r24
    1730:	54 fe       	sbrs	r5, 4
    1732:	c0 c0       	rjmp	.+384    	; 0x18b4 <_ZN7VL53L0X26setMeasurementTimingBudgetEm.part.3+0x366>
    1734:	46 01       	movw	r8, r12
    1736:	57 01       	movw	r10, r14
    1738:	f6 e3       	ldi	r31, 0x36	; 54
    173a:	8f 0e       	add	r8, r31
    173c:	fb e0       	ldi	r31, 0x0B	; 11
    173e:	9f 1e       	adc	r9, r31
    1740:	a1 1c       	adc	r10, r1
    1742:	b1 1c       	adc	r11, r1
    1744:	28 8d       	ldd	r18, Y+24	; 0x18
    1746:	22 23       	and	r18, r18
    1748:	09 f4       	brne	.+2      	; 0x174c <_ZN7VL53L0X26setMeasurementTimingBudgetEm.part.3+0x1fe>
    174a:	a7 c0       	rjmp	.+334    	; 0x189a <_ZN7VL53L0X26setMeasurementTimingBudgetEm.part.3+0x34c>
    174c:	32 eb       	ldi	r19, 0xB2	; 178
    174e:	c3 0e       	add	r12, r19
    1750:	32 e0       	ldi	r19, 0x02	; 2
    1752:	d3 1e       	adc	r13, r19
    1754:	e1 1c       	adc	r14, r1
    1756:	f1 1c       	adc	r15, r1
    1758:	cc 0c       	add	r12, r12
    175a:	dd 1c       	adc	r13, r13
    175c:	ee 1c       	adc	r14, r14
    175e:	ff 1c       	adc	r15, r15
    1760:	8c 0c       	add	r8, r12
    1762:	9d 1c       	adc	r9, r13
    1764:	ae 1c       	adc	r10, r14
    1766:	bf 1c       	adc	r11, r15
    1768:	5b 89       	ldd	r21, Y+19	; 0x13
    176a:	55 23       	and	r21, r21
    176c:	01 f1       	breq	.+64     	; 0x17ae <_ZN7VL53L0X26setMeasurementTimingBudgetEm.part.3+0x260>
    176e:	a9 8d       	ldd	r26, Y+25	; 0x19
    1770:	ba 8d       	ldd	r27, Y+26	; 0x1a
    1772:	2b 85       	ldd	r18, Y+11	; 0x0b
    1774:	3c 85       	ldd	r19, Y+12	; 0x0c
    1776:	4d 85       	ldd	r20, Y+13	; 0x0d
    1778:	5e 85       	ldd	r21, Y+14	; 0x0e
    177a:	0e 94 6e 24 	call	0x48dc	; 0x48dc <__muluhisi3>
    177e:	2f 85       	ldd	r18, Y+15	; 0x0f
    1780:	38 89       	ldd	r19, Y+16	; 0x10
    1782:	49 89       	ldd	r20, Y+17	; 0x11
    1784:	5a 89       	ldd	r21, Y+18	; 0x12
    1786:	62 0f       	add	r22, r18
    1788:	73 1f       	adc	r23, r19
    178a:	84 1f       	adc	r24, r20
    178c:	95 1f       	adc	r25, r21
    178e:	28 ee       	ldi	r18, 0xE8	; 232
    1790:	33 e0       	ldi	r19, 0x03	; 3
    1792:	40 e0       	ldi	r20, 0x00	; 0
    1794:	50 e0       	ldi	r21, 0x00	; 0
    1796:	0e 94 46 24 	call	0x488c	; 0x488c <__udivmodsi4>
    179a:	da 01       	movw	r26, r20
    179c:	c9 01       	movw	r24, r18
    179e:	8c 56       	subi	r24, 0x6C	; 108
    17a0:	9d 4f       	sbci	r25, 0xFD	; 253
    17a2:	af 4f       	sbci	r26, 0xFF	; 255
    17a4:	bf 4f       	sbci	r27, 0xFF	; 255
    17a6:	88 0e       	add	r8, r24
    17a8:	99 1e       	adc	r9, r25
    17aa:	aa 1e       	adc	r10, r26
    17ac:	bb 1e       	adc	r11, r27
    17ae:	57 fe       	sbrs	r5, 7
    17b0:	a2 c0       	rjmp	.+324    	; 0x18f6 <_ZN7VL53L0X26setMeasurementTimingBudgetEm.part.3+0x3a8>
    17b2:	75 01       	movw	r14, r10
    17b4:	64 01       	movw	r12, r8
    17b6:	36 e2       	ldi	r19, 0x26	; 38
    17b8:	c3 0e       	add	r12, r19
    17ba:	32 e0       	ldi	r19, 0x02	; 2
    17bc:	d3 1e       	adc	r13, r19
    17be:	e1 1c       	adc	r14, r1
    17c0:	f1 1c       	adc	r15, r1
    17c2:	8c 89       	ldd	r24, Y+20	; 0x14
    17c4:	9d 89       	ldd	r25, Y+21	; 0x15
    17c6:	ae 89       	ldd	r26, Y+22	; 0x16
    17c8:	bf 89       	ldd	r27, Y+23	; 0x17
    17ca:	8c 15       	cp	r24, r12
    17cc:	9d 05       	cpc	r25, r13
    17ce:	ae 05       	cpc	r26, r14
    17d0:	bf 05       	cpc	r27, r15
    17d2:	08 f4       	brcc	.+2      	; 0x17d6 <_ZN7VL53L0X26setMeasurementTimingBudgetEm.part.3+0x288>
    17d4:	76 c0       	rjmp	.+236    	; 0x18c2 <_ZN7VL53L0X26setMeasurementTimingBudgetEm.part.3+0x374>
    17d6:	81 e0       	ldi	r24, 0x01	; 1
    17d8:	84 0d       	add	r24, r4
    17da:	a8 2f       	mov	r26, r24
    17dc:	aa 0f       	add	r26, r26
    17de:	b0 e0       	ldi	r27, 0x00	; 0
    17e0:	20 e0       	ldi	r18, 0x00	; 0
    17e2:	3f e2       	ldi	r19, 0x2F	; 47
    17e4:	4a e3       	ldi	r20, 0x3A	; 58
    17e6:	50 e0       	ldi	r21, 0x00	; 0
    17e8:	0e 94 6e 24 	call	0x48dc	; 0x48dc <__muluhisi3>
    17ec:	4b 01       	movw	r8, r22
    17ee:	5c 01       	movw	r10, r24
    17f0:	a4 ef       	ldi	r26, 0xF4	; 244
    17f2:	8a 0e       	add	r8, r26
    17f4:	a1 e0       	ldi	r26, 0x01	; 1
    17f6:	9a 1e       	adc	r9, r26
    17f8:	a1 1c       	adc	r10, r1
    17fa:	b1 1c       	adc	r11, r1
    17fc:	2c 89       	ldd	r18, Y+20	; 0x14
    17fe:	3d 89       	ldd	r19, Y+21	; 0x15
    1800:	4e 89       	ldd	r20, Y+22	; 0x16
    1802:	5f 89       	ldd	r21, Y+23	; 0x17
    1804:	2c 19       	sub	r18, r12
    1806:	3d 09       	sbc	r19, r13
    1808:	4e 09       	sbc	r20, r14
    180a:	5f 09       	sbc	r21, r15
    180c:	a8 ee       	ldi	r26, 0xE8	; 232
    180e:	b3 e0       	ldi	r27, 0x03	; 3
    1810:	0e 94 6e 24 	call	0x48dc	; 0x48dc <__muluhisi3>
    1814:	6b 01       	movw	r12, r22
    1816:	7c 01       	movw	r14, r24
    1818:	c5 01       	movw	r24, r10
    181a:	b4 01       	movw	r22, r8
    181c:	20 ed       	ldi	r18, 0xD0	; 208
    181e:	37 e0       	ldi	r19, 0x07	; 7
    1820:	40 e0       	ldi	r20, 0x00	; 0
    1822:	50 e0       	ldi	r21, 0x00	; 0
    1824:	0e 94 46 24 	call	0x488c	; 0x488c <__udivmodsi4>
    1828:	c2 0e       	add	r12, r18
    182a:	d3 1e       	adc	r13, r19
    182c:	e4 1e       	adc	r14, r20
    182e:	f5 1e       	adc	r15, r21
    1830:	c5 01       	movw	r24, r10
    1832:	b4 01       	movw	r22, r8
    1834:	28 ee       	ldi	r18, 0xE8	; 232
    1836:	33 e0       	ldi	r19, 0x03	; 3
    1838:	40 e0       	ldi	r20, 0x00	; 0
    183a:	50 e0       	ldi	r21, 0x00	; 0
    183c:	0e 94 46 24 	call	0x488c	; 0x488c <__udivmodsi4>
    1840:	c7 01       	movw	r24, r14
    1842:	b6 01       	movw	r22, r12
    1844:	0e 94 46 24 	call	0x488c	; 0x488c <__udivmodsi4>
    1848:	c9 01       	movw	r24, r18
    184a:	bb 89       	ldd	r27, Y+19	; 0x13
    184c:	b1 11       	cpse	r27, r1
    184e:	55 c0       	rjmp	.+170    	; 0x18fa <_ZN7VL53L0X26setMeasurementTimingBudgetEm.part.3+0x3ac>
    1850:	00 97       	sbiw	r24, 0x00	; 0
    1852:	09 f0       	breq	.+2      	; 0x1856 <_ZN7VL53L0X26setMeasurementTimingBudgetEm.part.3+0x308>
    1854:	59 c0       	rjmp	.+178    	; 0x1908 <_ZN7VL53L0X26setMeasurementTimingBudgetEm.part.3+0x3ba>
    1856:	80 e0       	ldi	r24, 0x00	; 0
    1858:	90 e0       	ldi	r25, 0x00	; 0
    185a:	21 e7       	ldi	r18, 0x71	; 113
    185c:	2a 87       	std	Y+10, r18	; 0x0a
    185e:	9a 83       	std	Y+2, r25	; 0x02
    1860:	89 83       	std	Y+1, r24	; 0x01
    1862:	82 e0       	ldi	r24, 0x02	; 2
    1864:	8b 83       	std	Y+3, r24	; 0x03
    1866:	8e 01       	movw	r16, r28
    1868:	0f 5f       	subi	r16, 0xFF	; 255
    186a:	1f 4f       	sbci	r17, 0xFF	; 255
    186c:	9e 01       	movw	r18, r28
    186e:	2d 5f       	subi	r18, 0xFD	; 253
    1870:	3f 4f       	sbci	r19, 0xFF	; 255
    1872:	ae 01       	movw	r20, r28
    1874:	46 5f       	subi	r20, 0xF6	; 246
    1876:	5f 4f       	sbci	r21, 0xFF	; 255
    1878:	b3 01       	movw	r22, r6
    187a:	8c e3       	ldi	r24, 0x3C	; 60
    187c:	91 e0       	ldi	r25, 0x01	; 1
    187e:	0e 94 4e 09 	call	0x129c	; 0x129c <_ZN3TWI5writeERKhS1_S1_PS0_>
    1882:	f1 01       	movw	r30, r2
    1884:	80 83       	st	Z, r24
    1886:	2c 89       	ldd	r18, Y+20	; 0x14
    1888:	3d 89       	ldd	r19, Y+21	; 0x15
    188a:	4e 89       	ldd	r20, Y+22	; 0x16
    188c:	5f 89       	ldd	r21, Y+23	; 0x17
    188e:	20 87       	std	Z+8, r18	; 0x08
    1890:	31 87       	std	Z+9, r19	; 0x09
    1892:	42 87       	std	Z+10, r20	; 0x0a
    1894:	53 87       	std	Z+11, r21	; 0x0b
    1896:	81 e0       	ldi	r24, 0x01	; 1
    1898:	15 c0       	rjmp	.+42     	; 0x18c4 <_ZN7VL53L0X26setMeasurementTimingBudgetEm.part.3+0x376>
    189a:	52 fe       	sbrs	r5, 2
    189c:	65 cf       	rjmp	.-310    	; 0x1768 <_ZN7VL53L0X26setMeasurementTimingBudgetEm.part.3+0x21a>
    189e:	44 e9       	ldi	r20, 0x94	; 148
    18a0:	c4 0e       	add	r12, r20
    18a2:	42 e0       	ldi	r20, 0x02	; 2
    18a4:	d4 1e       	adc	r13, r20
    18a6:	e1 1c       	adc	r14, r1
    18a8:	f1 1c       	adc	r15, r1
    18aa:	8c 0c       	add	r8, r12
    18ac:	9d 1c       	adc	r9, r13
    18ae:	ae 1c       	adc	r10, r14
    18b0:	bf 1c       	adc	r11, r15
    18b2:	5a cf       	rjmp	.-332    	; 0x1768 <_ZN7VL53L0X26setMeasurementTimingBudgetEm.part.3+0x21a>
    18b4:	78 ee       	ldi	r23, 0xE8	; 232
    18b6:	87 2e       	mov	r8, r23
    18b8:	78 e0       	ldi	r23, 0x08	; 8
    18ba:	97 2e       	mov	r9, r23
    18bc:	a1 2c       	mov	r10, r1
    18be:	b1 2c       	mov	r11, r1
    18c0:	41 cf       	rjmp	.-382    	; 0x1744 <_ZN7VL53L0X26setMeasurementTimingBudgetEm.part.3+0x1f6>
    18c2:	80 e0       	ldi	r24, 0x00	; 0
    18c4:	6a 96       	adiw	r28, 0x1a	; 26
    18c6:	0f b6       	in	r0, 0x3f	; 63
    18c8:	f8 94       	cli
    18ca:	de bf       	out	0x3e, r29	; 62
    18cc:	0f be       	out	0x3f, r0	; 63
    18ce:	cd bf       	out	0x3d, r28	; 61
    18d0:	df 91       	pop	r29
    18d2:	cf 91       	pop	r28
    18d4:	1f 91       	pop	r17
    18d6:	0f 91       	pop	r16
    18d8:	ff 90       	pop	r15
    18da:	ef 90       	pop	r14
    18dc:	df 90       	pop	r13
    18de:	cf 90       	pop	r12
    18e0:	bf 90       	pop	r11
    18e2:	af 90       	pop	r10
    18e4:	9f 90       	pop	r9
    18e6:	8f 90       	pop	r8
    18e8:	7f 90       	pop	r7
    18ea:	6f 90       	pop	r6
    18ec:	5f 90       	pop	r5
    18ee:	4f 90       	pop	r4
    18f0:	3f 90       	pop	r3
    18f2:	2f 90       	pop	r2
    18f4:	08 95       	ret
    18f6:	81 e0       	ldi	r24, 0x01	; 1
    18f8:	e5 cf       	rjmp	.-54     	; 0x18c4 <_ZN7VL53L0X26setMeasurementTimingBudgetEm.part.3+0x376>
    18fa:	89 8d       	ldd	r24, Y+25	; 0x19
    18fc:	9a 8d       	ldd	r25, Y+26	; 0x1a
    18fe:	82 0f       	add	r24, r18
    1900:	93 1f       	adc	r25, r19
    1902:	00 97       	sbiw	r24, 0x00	; 0
    1904:	09 f4       	brne	.+2      	; 0x1908 <_ZN7VL53L0X26setMeasurementTimingBudgetEm.part.3+0x3ba>
    1906:	a7 cf       	rjmp	.-178    	; 0x1856 <_ZN7VL53L0X26setMeasurementTimingBudgetEm.part.3+0x308>
    1908:	01 97       	sbiw	r24, 0x01	; 1
    190a:	a0 e0       	ldi	r26, 0x00	; 0
    190c:	b0 e0       	ldi	r27, 0x00	; 0
    190e:	ac 01       	movw	r20, r24
    1910:	bd 01       	movw	r22, r26
    1912:	44 27       	eor	r20, r20
    1914:	20 e0       	ldi	r18, 0x00	; 0
    1916:	30 e0       	ldi	r19, 0x00	; 0
    1918:	45 2b       	or	r20, r21
    191a:	46 2b       	or	r20, r22
    191c:	47 2b       	or	r20, r23
    191e:	79 f0       	breq	.+30     	; 0x193e <_ZN7VL53L0X26setMeasurementTimingBudgetEm.part.3+0x3f0>
    1920:	b6 95       	lsr	r27
    1922:	a7 95       	ror	r26
    1924:	97 95       	ror	r25
    1926:	87 95       	ror	r24
    1928:	2f 5f       	subi	r18, 0xFF	; 255
    192a:	3f 4f       	sbci	r19, 0xFF	; 255
    192c:	ac 01       	movw	r20, r24
    192e:	bd 01       	movw	r22, r26
    1930:	44 27       	eor	r20, r20
    1932:	45 2b       	or	r20, r21
    1934:	46 2b       	or	r20, r22
    1936:	47 2b       	or	r20, r23
    1938:	99 f7       	brne	.-26     	; 0x1920 <_ZN7VL53L0X26setMeasurementTimingBudgetEm.part.3+0x3d2>
    193a:	32 2f       	mov	r19, r18
    193c:	22 27       	eor	r18, r18
    193e:	82 2b       	or	r24, r18
    1940:	93 2b       	or	r25, r19
    1942:	8b cf       	rjmp	.-234    	; 0x185a <_ZN7VL53L0X26setMeasurementTimingBudgetEm.part.3+0x30c>

00001944 <_ZN7VL53L0XC1Ev>:
    1944:	fc 01       	movw	r30, r24
    1946:	89 e2       	ldi	r24, 0x29	; 41
    1948:	81 83       	std	Z+1, r24	; 0x01
    194a:	84 ef       	ldi	r24, 0xF4	; 244
    194c:	91 e0       	ldi	r25, 0x01	; 1
    194e:	93 83       	std	Z+3, r25	; 0x03
    1950:	82 83       	std	Z+2, r24	; 0x02
    1952:	14 82       	std	Z+4, r1	; 0x04
    1954:	08 95       	ret

00001956 <_ZN7VL53L0X26getMeasurementTimingBudgetEv>:
    1956:	2f 92       	push	r2
    1958:	3f 92       	push	r3
    195a:	4f 92       	push	r4
    195c:	5f 92       	push	r5
    195e:	6f 92       	push	r6
    1960:	7f 92       	push	r7
    1962:	8f 92       	push	r8
    1964:	9f 92       	push	r9
    1966:	af 92       	push	r10
    1968:	bf 92       	push	r11
    196a:	cf 92       	push	r12
    196c:	df 92       	push	r13
    196e:	ef 92       	push	r14
    1970:	ff 92       	push	r15
    1972:	0f 93       	push	r16
    1974:	1f 93       	push	r17
    1976:	cf 93       	push	r28
    1978:	df 93       	push	r29
    197a:	cd b7       	in	r28, 0x3d	; 61
    197c:	de b7       	in	r29, 0x3e	; 62
    197e:	67 97       	sbiw	r28, 0x17	; 23
    1980:	0f b6       	in	r0, 0x3f	; 63
    1982:	f8 94       	cli
    1984:	de bf       	out	0x3e, r29	; 62
    1986:	0f be       	out	0x3f, r0	; 63
    1988:	cd bf       	out	0x3d, r28	; 61
    198a:	1c 01       	movw	r2, r24
    198c:	21 e0       	ldi	r18, 0x01	; 1
    198e:	28 87       	std	Y+8, r18	; 0x08
    1990:	29 83       	std	Y+1, r18	; 0x01
    1992:	6c 01       	movw	r12, r24
    1994:	3f ef       	ldi	r19, 0xFF	; 255
    1996:	c3 1a       	sub	r12, r19
    1998:	d3 0a       	sbc	r13, r19
    199a:	8e 01       	movw	r16, r28
    199c:	0d 5f       	subi	r16, 0xFD	; 253
    199e:	1f 4f       	sbci	r17, 0xFF	; 255
    19a0:	9e 01       	movw	r18, r28
    19a2:	2f 5f       	subi	r18, 0xFF	; 255
    19a4:	3f 4f       	sbci	r19, 0xFF	; 255
    19a6:	ae 01       	movw	r20, r28
    19a8:	48 5f       	subi	r20, 0xF8	; 248
    19aa:	5f 4f       	sbci	r21, 0xFF	; 255
    19ac:	b6 01       	movw	r22, r12
    19ae:	8c e3       	ldi	r24, 0x3C	; 60
    19b0:	91 e0       	ldi	r25, 0x01	; 1
    19b2:	0e 94 93 09 	call	0x1326	; 0x1326 <_ZN3TWI4readERKhS1_S1_Ph>
    19b6:	f1 01       	movw	r30, r2
    19b8:	80 83       	st	Z, r24
    19ba:	fb 81       	ldd	r31, Y+3	; 0x03
    19bc:	fa 87       	std	Y+10, r31	; 0x0a
    19be:	f0 71       	andi	r31, 0x10	; 16
    19c0:	fd 8b       	std	Y+21, r31	; 0x15
    19c2:	2a 85       	ldd	r18, Y+10	; 0x0a
    19c4:	28 70       	andi	r18, 0x08	; 8
    19c6:	2e 8b       	std	Y+22, r18	; 0x16
    19c8:	3a 85       	ldd	r19, Y+10	; 0x0a
    19ca:	30 74       	andi	r19, 0x40	; 64
    19cc:	3a 8b       	std	Y+18, r19	; 0x12
    19ce:	80 e5       	ldi	r24, 0x50	; 80
    19d0:	8c 83       	std	Y+4, r24	; 0x04
    19d2:	41 e0       	ldi	r20, 0x01	; 1
    19d4:	49 83       	std	Y+1, r20	; 0x01
    19d6:	9e 01       	movw	r18, r28
    19d8:	2f 5f       	subi	r18, 0xFF	; 255
    19da:	3f 4f       	sbci	r19, 0xFF	; 255
    19dc:	ae 01       	movw	r20, r28
    19de:	4c 5f       	subi	r20, 0xFC	; 252
    19e0:	5f 4f       	sbci	r21, 0xFF	; 255
    19e2:	b6 01       	movw	r22, r12
    19e4:	8c e3       	ldi	r24, 0x3C	; 60
    19e6:	91 e0       	ldi	r25, 0x01	; 1
    19e8:	0e 94 93 09 	call	0x1326	; 0x1326 <_ZN3TWI4readERKhS1_S1_Ph>
    19ec:	f1 01       	movw	r30, r2
    19ee:	80 83       	st	Z, r24
    19f0:	eb 80       	ldd	r14, Y+3	; 0x03
    19f2:	86 e4       	ldi	r24, 0x46	; 70
    19f4:	89 87       	std	Y+9, r24	; 0x09
    19f6:	f1 e0       	ldi	r31, 0x01	; 1
    19f8:	f9 83       	std	Y+1, r31	; 0x01
    19fa:	9e 01       	movw	r18, r28
    19fc:	2f 5f       	subi	r18, 0xFF	; 255
    19fe:	3f 4f       	sbci	r19, 0xFF	; 255
    1a00:	ae 01       	movw	r20, r28
    1a02:	47 5f       	subi	r20, 0xF7	; 247
    1a04:	5f 4f       	sbci	r21, 0xFF	; 255
    1a06:	b6 01       	movw	r22, r12
    1a08:	8c e3       	ldi	r24, 0x3C	; 60
    1a0a:	91 e0       	ldi	r25, 0x01	; 1
    1a0c:	0e 94 93 09 	call	0x1326	; 0x1326 <_ZN3TWI4readERKhS1_S1_Ph>
    1a10:	f1 01       	movw	r30, r2
    1a12:	80 83       	st	Z, r24
    1a14:	fb 81       	ldd	r31, Y+3	; 0x03
    1a16:	fe 87       	std	Y+14, r31	; 0x0e
    1a18:	e3 94       	inc	r14
    1a1a:	ae 2d       	mov	r26, r14
    1a1c:	aa 0f       	add	r26, r26
    1a1e:	b0 e0       	ldi	r27, 0x00	; 0
    1a20:	20 e0       	ldi	r18, 0x00	; 0
    1a22:	3f e2       	ldi	r19, 0x2F	; 47
    1a24:	4a e3       	ldi	r20, 0x3A	; 58
    1a26:	50 e0       	ldi	r21, 0x00	; 0
    1a28:	0e 94 6e 24 	call	0x48dc	; 0x48dc <__muluhisi3>
    1a2c:	4b 01       	movw	r8, r22
    1a2e:	5c 01       	movw	r10, r24
    1a30:	24 ef       	ldi	r18, 0xF4	; 244
    1a32:	82 0e       	add	r8, r18
    1a34:	21 e0       	ldi	r18, 0x01	; 1
    1a36:	92 1e       	adc	r9, r18
    1a38:	a1 1c       	adc	r10, r1
    1a3a:	b1 1c       	adc	r11, r1
    1a3c:	18 ee       	ldi	r17, 0xE8	; 232
    1a3e:	e1 2e       	mov	r14, r17
    1a40:	13 e0       	ldi	r17, 0x03	; 3
    1a42:	f1 2e       	mov	r15, r17
    1a44:	00 e0       	ldi	r16, 0x00	; 0
    1a46:	10 e0       	ldi	r17, 0x00	; 0
    1a48:	c5 01       	movw	r24, r10
    1a4a:	b4 01       	movw	r22, r8
    1a4c:	a8 01       	movw	r20, r16
    1a4e:	97 01       	movw	r18, r14
    1a50:	0e 94 46 24 	call	0x488c	; 0x488c <__udivmodsi4>
    1a54:	29 01       	movw	r4, r18
    1a56:	3a 01       	movw	r6, r20
    1a58:	c5 01       	movw	r24, r10
    1a5a:	b4 01       	movw	r22, r8
    1a5c:	20 ed       	ldi	r18, 0xD0	; 208
    1a5e:	37 e0       	ldi	r19, 0x07	; 7
    1a60:	40 e0       	ldi	r20, 0x00	; 0
    1a62:	50 e0       	ldi	r21, 0x00	; 0
    1a64:	0e 94 46 24 	call	0x488c	; 0x488c <__udivmodsi4>
    1a68:	49 01       	movw	r8, r18
    1a6a:	5a 01       	movw	r10, r20
    1a6c:	3e 85       	ldd	r19, Y+14	; 0x0e
    1a6e:	a3 2f       	mov	r26, r19
    1a70:	b0 e0       	ldi	r27, 0x00	; 0
    1a72:	11 96       	adiw	r26, 0x01	; 1
    1a74:	a3 01       	movw	r20, r6
    1a76:	92 01       	movw	r18, r4
    1a78:	0e 94 79 24 	call	0x48f2	; 0x48f2 <__mulshisi3>
    1a7c:	68 0d       	add	r22, r8
    1a7e:	79 1d       	adc	r23, r9
    1a80:	8a 1d       	adc	r24, r10
    1a82:	9b 1d       	adc	r25, r11
    1a84:	a8 01       	movw	r20, r16
    1a86:	97 01       	movw	r18, r14
    1a88:	0e 94 46 24 	call	0x488c	; 0x488c <__udivmodsi4>
    1a8c:	2e 87       	std	Y+14, r18	; 0x0e
    1a8e:	3f 87       	std	Y+15, r19	; 0x0f
    1a90:	48 8b       	std	Y+16, r20	; 0x10
    1a92:	59 8b       	std	Y+17, r21	; 0x11
    1a94:	81 e5       	ldi	r24, 0x51	; 81
    1a96:	8d 83       	std	Y+5, r24	; 0x05
    1a98:	52 e0       	ldi	r21, 0x02	; 2
    1a9a:	e5 2e       	mov	r14, r21
    1a9c:	eb 82       	std	Y+3, r14	; 0x03
    1a9e:	8e 01       	movw	r16, r28
    1aa0:	0f 5f       	subi	r16, 0xFF	; 255
    1aa2:	1f 4f       	sbci	r17, 0xFF	; 255
    1aa4:	9e 01       	movw	r18, r28
    1aa6:	2d 5f       	subi	r18, 0xFD	; 253
    1aa8:	3f 4f       	sbci	r19, 0xFF	; 255
    1aaa:	ae 01       	movw	r20, r28
    1aac:	4b 5f       	subi	r20, 0xFB	; 251
    1aae:	5f 4f       	sbci	r21, 0xFF	; 255
    1ab0:	b6 01       	movw	r22, r12
    1ab2:	8c e3       	ldi	r24, 0x3C	; 60
    1ab4:	91 e0       	ldi	r25, 0x01	; 1
    1ab6:	0e 94 93 09 	call	0x1326	; 0x1326 <_ZN3TWI4readERKhS1_S1_Ph>
    1aba:	f1 01       	movw	r30, r2
    1abc:	80 83       	st	Z, r24
    1abe:	89 81       	ldd	r24, Y+1	; 0x01
    1ac0:	9a 81       	ldd	r25, Y+2	; 0x02
    1ac2:	98 27       	eor	r25, r24
    1ac4:	89 27       	eor	r24, r25
    1ac6:	98 27       	eor	r25, r24
    1ac8:	9c 01       	movw	r18, r24
    1aca:	33 27       	eor	r19, r19
    1acc:	a9 01       	movw	r20, r18
    1ace:	02 c0       	rjmp	.+4      	; 0x1ad4 <_ZN7VL53L0X26getMeasurementTimingBudgetEv+0x17e>
    1ad0:	44 0f       	add	r20, r20
    1ad2:	55 1f       	adc	r21, r21
    1ad4:	9a 95       	dec	r25
    1ad6:	e2 f7       	brpl	.-8      	; 0x1ad0 <_ZN7VL53L0X26getMeasurementTimingBudgetEv+0x17a>
    1ad8:	fa 01       	movw	r30, r20
    1ada:	31 96       	adiw	r30, 0x01	; 1
    1adc:	fc 8b       	std	Y+20, r31	; 0x14
    1ade:	eb 8b       	std	Y+19, r30	; 0x13
    1ae0:	80 e7       	ldi	r24, 0x70	; 112
    1ae2:	8e 83       	std	Y+6, r24	; 0x06
    1ae4:	f1 e0       	ldi	r31, 0x01	; 1
    1ae6:	f9 83       	std	Y+1, r31	; 0x01
    1ae8:	0e 5f       	subi	r16, 0xFE	; 254
    1aea:	1f 4f       	sbci	r17, 0xFF	; 255
    1aec:	9e 01       	movw	r18, r28
    1aee:	2f 5f       	subi	r18, 0xFF	; 255
    1af0:	3f 4f       	sbci	r19, 0xFF	; 255
    1af2:	ae 01       	movw	r20, r28
    1af4:	4a 5f       	subi	r20, 0xFA	; 250
    1af6:	5f 4f       	sbci	r21, 0xFF	; 255
    1af8:	b6 01       	movw	r22, r12
    1afa:	8c e3       	ldi	r24, 0x3C	; 60
    1afc:	91 e0       	ldi	r25, 0x01	; 1
    1afe:	0e 94 93 09 	call	0x1326	; 0x1326 <_ZN3TWI4readERKhS1_S1_Ph>
    1b02:	f1 01       	movw	r30, r2
    1b04:	80 83       	st	Z, r24
    1b06:	fb 81       	ldd	r31, Y+3	; 0x03
    1b08:	ff 8b       	std	Y+23, r31	; 0x17
    1b0a:	81 e7       	ldi	r24, 0x71	; 113
    1b0c:	8f 83       	std	Y+7, r24	; 0x07
    1b0e:	eb 82       	std	Y+3, r14	; 0x03
    1b10:	02 50       	subi	r16, 0x02	; 2
    1b12:	11 09       	sbc	r17, r1
    1b14:	9e 01       	movw	r18, r28
    1b16:	2d 5f       	subi	r18, 0xFD	; 253
    1b18:	3f 4f       	sbci	r19, 0xFF	; 255
    1b1a:	ae 01       	movw	r20, r28
    1b1c:	49 5f       	subi	r20, 0xF9	; 249
    1b1e:	5f 4f       	sbci	r21, 0xFF	; 255
    1b20:	b6 01       	movw	r22, r12
    1b22:	8c e3       	ldi	r24, 0x3C	; 60
    1b24:	91 e0       	ldi	r25, 0x01	; 1
    1b26:	0e 94 93 09 	call	0x1326	; 0x1326 <_ZN3TWI4readERKhS1_S1_Ph>
    1b2a:	f1 01       	movw	r30, r2
    1b2c:	80 83       	st	Z, r24
    1b2e:	89 81       	ldd	r24, Y+1	; 0x01
    1b30:	9a 81       	ldd	r25, Y+2	; 0x02
    1b32:	98 27       	eor	r25, r24
    1b34:	89 27       	eor	r24, r25
    1b36:	98 27       	eor	r25, r24
    1b38:	8c 01       	movw	r16, r24
    1b3a:	11 27       	eor	r17, r17
    1b3c:	02 c0       	rjmp	.+4      	; 0x1b42 <_ZN7VL53L0X26getMeasurementTimingBudgetEv+0x1ec>
    1b3e:	00 0f       	add	r16, r16
    1b40:	11 1f       	adc	r17, r17
    1b42:	9a 95       	dec	r25
    1b44:	e2 f7       	brpl	.-8      	; 0x1b3e <_ZN7VL53L0X26getMeasurementTimingBudgetEv+0x1e8>
    1b46:	0f 5f       	subi	r16, 0xFF	; 255
    1b48:	1f 4f       	sbci	r17, 0xFF	; 255
    1b4a:	fa 89       	ldd	r31, Y+18	; 0x12
    1b4c:	ff 23       	and	r31, r31
    1b4e:	21 f0       	breq	.+8      	; 0x1b58 <_ZN7VL53L0X26getMeasurementTimingBudgetEv+0x202>
    1b50:	2b 89       	ldd	r18, Y+19	; 0x13
    1b52:	3c 89       	ldd	r19, Y+20	; 0x14
    1b54:	02 1b       	sub	r16, r18
    1b56:	13 0b       	sbc	r17, r19
    1b58:	3d 89       	ldd	r19, Y+21	; 0x15
    1b5a:	33 23       	and	r19, r19
    1b5c:	09 f4       	brne	.+2      	; 0x1b60 <_ZN7VL53L0X26getMeasurementTimingBudgetEv+0x20a>
    1b5e:	b2 c0       	rjmp	.+356    	; 0x1cc4 <_ZN7VL53L0X26getMeasurementTimingBudgetEv+0x36e>
    1b60:	ce 84       	ldd	r12, Y+14	; 0x0e
    1b62:	df 84       	ldd	r13, Y+15	; 0x0f
    1b64:	e8 88       	ldd	r14, Y+16	; 0x10
    1b66:	f9 88       	ldd	r15, Y+17	; 0x11
    1b68:	44 e8       	ldi	r20, 0x84	; 132
    1b6a:	c4 0e       	add	r12, r20
    1b6c:	4d e0       	ldi	r20, 0x0D	; 13
    1b6e:	d4 1e       	adc	r13, r20
    1b70:	e1 1c       	adc	r14, r1
    1b72:	f1 1c       	adc	r15, r1
    1b74:	5e 89       	ldd	r21, Y+22	; 0x16
    1b76:	55 23       	and	r21, r21
    1b78:	09 f4       	brne	.+2      	; 0x1b7c <_ZN7VL53L0X26getMeasurementTimingBudgetEv+0x226>
    1b7a:	94 c0       	rjmp	.+296    	; 0x1ca4 <_ZN7VL53L0X26getMeasurementTimingBudgetEv+0x34e>
    1b7c:	8e 85       	ldd	r24, Y+14	; 0x0e
    1b7e:	9f 85       	ldd	r25, Y+15	; 0x0f
    1b80:	a8 89       	ldd	r26, Y+16	; 0x10
    1b82:	b9 89       	ldd	r27, Y+17	; 0x11
    1b84:	8e 54       	subi	r24, 0x4E	; 78
    1b86:	9d 4f       	sbci	r25, 0xFD	; 253
    1b88:	af 4f       	sbci	r26, 0xFF	; 255
    1b8a:	bf 4f       	sbci	r27, 0xFF	; 255
    1b8c:	88 0f       	add	r24, r24
    1b8e:	99 1f       	adc	r25, r25
    1b90:	aa 1f       	adc	r26, r26
    1b92:	bb 1f       	adc	r27, r27
    1b94:	c8 0e       	add	r12, r24
    1b96:	d9 1e       	adc	r13, r25
    1b98:	ea 1e       	adc	r14, r26
    1b9a:	fb 1e       	adc	r15, r27
    1b9c:	9a 89       	ldd	r25, Y+18	; 0x12
    1b9e:	99 23       	and	r25, r25
    1ba0:	d1 f0       	breq	.+52     	; 0x1bd6 <_ZN7VL53L0X26getMeasurementTimingBudgetEv+0x280>
    1ba2:	ab 89       	ldd	r26, Y+19	; 0x13
    1ba4:	bc 89       	ldd	r27, Y+20	; 0x14
    1ba6:	a3 01       	movw	r20, r6
    1ba8:	92 01       	movw	r18, r4
    1baa:	0e 94 6e 24 	call	0x48dc	; 0x48dc <__muluhisi3>
    1bae:	68 0d       	add	r22, r8
    1bb0:	79 1d       	adc	r23, r9
    1bb2:	8a 1d       	adc	r24, r10
    1bb4:	9b 1d       	adc	r25, r11
    1bb6:	28 ee       	ldi	r18, 0xE8	; 232
    1bb8:	33 e0       	ldi	r19, 0x03	; 3
    1bba:	40 e0       	ldi	r20, 0x00	; 0
    1bbc:	50 e0       	ldi	r21, 0x00	; 0
    1bbe:	0e 94 46 24 	call	0x488c	; 0x488c <__udivmodsi4>
    1bc2:	da 01       	movw	r26, r20
    1bc4:	c9 01       	movw	r24, r18
    1bc6:	8c 56       	subi	r24, 0x6C	; 108
    1bc8:	9d 4f       	sbci	r25, 0xFD	; 253
    1bca:	af 4f       	sbci	r26, 0xFF	; 255
    1bcc:	bf 4f       	sbci	r27, 0xFF	; 255
    1bce:	c8 0e       	add	r12, r24
    1bd0:	d9 1e       	adc	r13, r25
    1bd2:	ea 1e       	adc	r14, r26
    1bd4:	fb 1e       	adc	r15, r27
    1bd6:	ea 85       	ldd	r30, Y+10	; 0x0a
    1bd8:	e7 ff       	sbrs	r30, 7
    1bda:	44 c0       	rjmp	.+136    	; 0x1c64 <_ZN7VL53L0X26getMeasurementTimingBudgetEv+0x30e>
    1bdc:	8f 89       	ldd	r24, Y+23	; 0x17
    1bde:	8f 5f       	subi	r24, 0xFF	; 255
    1be0:	a8 2f       	mov	r26, r24
    1be2:	aa 0f       	add	r26, r26
    1be4:	b0 e0       	ldi	r27, 0x00	; 0
    1be6:	20 e0       	ldi	r18, 0x00	; 0
    1be8:	3f e2       	ldi	r19, 0x2F	; 47
    1bea:	4a e3       	ldi	r20, 0x3A	; 58
    1bec:	50 e0       	ldi	r21, 0x00	; 0
    1bee:	0e 94 6e 24 	call	0x48dc	; 0x48dc <__muluhisi3>
    1bf2:	4b 01       	movw	r8, r22
    1bf4:	5c 01       	movw	r10, r24
    1bf6:	f4 ef       	ldi	r31, 0xF4	; 244
    1bf8:	8f 0e       	add	r8, r31
    1bfa:	f1 e0       	ldi	r31, 0x01	; 1
    1bfc:	9f 1e       	adc	r9, r31
    1bfe:	a1 1c       	adc	r10, r1
    1c00:	b1 1c       	adc	r11, r1
    1c02:	88 ee       	ldi	r24, 0xE8	; 232
    1c04:	48 2e       	mov	r4, r24
    1c06:	83 e0       	ldi	r24, 0x03	; 3
    1c08:	58 2e       	mov	r5, r24
    1c0a:	61 2c       	mov	r6, r1
    1c0c:	71 2c       	mov	r7, r1
    1c0e:	c5 01       	movw	r24, r10
    1c10:	b4 01       	movw	r22, r8
    1c12:	a3 01       	movw	r20, r6
    1c14:	92 01       	movw	r18, r4
    1c16:	0e 94 46 24 	call	0x488c	; 0x488c <__udivmodsi4>
    1c1a:	d8 01       	movw	r26, r16
    1c1c:	0e 94 6e 24 	call	0x48dc	; 0x48dc <__muluhisi3>
    1c20:	6a 87       	std	Y+10, r22	; 0x0a
    1c22:	7b 87       	std	Y+11, r23	; 0x0b
    1c24:	8c 87       	std	Y+12, r24	; 0x0c
    1c26:	9d 87       	std	Y+13, r25	; 0x0d
    1c28:	c5 01       	movw	r24, r10
    1c2a:	b4 01       	movw	r22, r8
    1c2c:	20 ed       	ldi	r18, 0xD0	; 208
    1c2e:	37 e0       	ldi	r19, 0x07	; 7
    1c30:	40 e0       	ldi	r20, 0x00	; 0
    1c32:	50 e0       	ldi	r21, 0x00	; 0
    1c34:	0e 94 46 24 	call	0x488c	; 0x488c <__udivmodsi4>
    1c38:	6a 85       	ldd	r22, Y+10	; 0x0a
    1c3a:	7b 85       	ldd	r23, Y+11	; 0x0b
    1c3c:	8c 85       	ldd	r24, Y+12	; 0x0c
    1c3e:	9d 85       	ldd	r25, Y+13	; 0x0d
    1c40:	62 0f       	add	r22, r18
    1c42:	73 1f       	adc	r23, r19
    1c44:	84 1f       	adc	r24, r20
    1c46:	95 1f       	adc	r25, r21
    1c48:	a3 01       	movw	r20, r6
    1c4a:	92 01       	movw	r18, r4
    1c4c:	0e 94 46 24 	call	0x488c	; 0x488c <__udivmodsi4>
    1c50:	da 01       	movw	r26, r20
    1c52:	c9 01       	movw	r24, r18
    1c54:	8a 5d       	subi	r24, 0xDA	; 218
    1c56:	9d 4f       	sbci	r25, 0xFD	; 253
    1c58:	af 4f       	sbci	r26, 0xFF	; 255
    1c5a:	bf 4f       	sbci	r27, 0xFF	; 255
    1c5c:	c8 0e       	add	r12, r24
    1c5e:	d9 1e       	adc	r13, r25
    1c60:	ea 1e       	adc	r14, r26
    1c62:	fb 1e       	adc	r15, r27
    1c64:	f1 01       	movw	r30, r2
    1c66:	c0 86       	std	Z+8, r12	; 0x08
    1c68:	d1 86       	std	Z+9, r13	; 0x09
    1c6a:	e2 86       	std	Z+10, r14	; 0x0a
    1c6c:	f3 86       	std	Z+11, r15	; 0x0b
    1c6e:	c7 01       	movw	r24, r14
    1c70:	b6 01       	movw	r22, r12
    1c72:	67 96       	adiw	r28, 0x17	; 23
    1c74:	0f b6       	in	r0, 0x3f	; 63
    1c76:	f8 94       	cli
    1c78:	de bf       	out	0x3e, r29	; 62
    1c7a:	0f be       	out	0x3f, r0	; 63
    1c7c:	cd bf       	out	0x3d, r28	; 61
    1c7e:	df 91       	pop	r29
    1c80:	cf 91       	pop	r28
    1c82:	1f 91       	pop	r17
    1c84:	0f 91       	pop	r16
    1c86:	ff 90       	pop	r15
    1c88:	ef 90       	pop	r14
    1c8a:	df 90       	pop	r13
    1c8c:	cf 90       	pop	r12
    1c8e:	bf 90       	pop	r11
    1c90:	af 90       	pop	r10
    1c92:	9f 90       	pop	r9
    1c94:	8f 90       	pop	r8
    1c96:	7f 90       	pop	r7
    1c98:	6f 90       	pop	r6
    1c9a:	5f 90       	pop	r5
    1c9c:	4f 90       	pop	r4
    1c9e:	3f 90       	pop	r3
    1ca0:	2f 90       	pop	r2
    1ca2:	08 95       	ret
    1ca4:	8a 85       	ldd	r24, Y+10	; 0x0a
    1ca6:	82 ff       	sbrs	r24, 2
    1ca8:	79 cf       	rjmp	.-270    	; 0x1b9c <_ZN7VL53L0X26getMeasurementTimingBudgetEv+0x246>
    1caa:	8e 85       	ldd	r24, Y+14	; 0x0e
    1cac:	9f 85       	ldd	r25, Y+15	; 0x0f
    1cae:	a8 89       	ldd	r26, Y+16	; 0x10
    1cb0:	b9 89       	ldd	r27, Y+17	; 0x11
    1cb2:	8c 56       	subi	r24, 0x6C	; 108
    1cb4:	9d 4f       	sbci	r25, 0xFD	; 253
    1cb6:	af 4f       	sbci	r26, 0xFF	; 255
    1cb8:	bf 4f       	sbci	r27, 0xFF	; 255
    1cba:	c8 0e       	add	r12, r24
    1cbc:	d9 1e       	adc	r13, r25
    1cbe:	ea 1e       	adc	r14, r26
    1cc0:	fb 1e       	adc	r15, r27
    1cc2:	6c cf       	rjmp	.-296    	; 0x1b9c <_ZN7VL53L0X26getMeasurementTimingBudgetEv+0x246>
    1cc4:	36 e3       	ldi	r19, 0x36	; 54
    1cc6:	c3 2e       	mov	r12, r19
    1cc8:	3b e0       	ldi	r19, 0x0B	; 11
    1cca:	d3 2e       	mov	r13, r19
    1ccc:	e1 2c       	mov	r14, r1
    1cce:	f1 2c       	mov	r15, r1
    1cd0:	51 cf       	rjmp	.-350    	; 0x1b74 <_ZN7VL53L0X26getMeasurementTimingBudgetEv+0x21e>

00001cd2 <_ZN7VL53L0X15startContinuousEm>:
    1cd2:	4f 92       	push	r4
    1cd4:	5f 92       	push	r5
    1cd6:	6f 92       	push	r6
    1cd8:	7f 92       	push	r7
    1cda:	9f 92       	push	r9
    1cdc:	af 92       	push	r10
    1cde:	bf 92       	push	r11
    1ce0:	cf 92       	push	r12
    1ce2:	df 92       	push	r13
    1ce4:	ef 92       	push	r14
    1ce6:	ff 92       	push	r15
    1ce8:	0f 93       	push	r16
    1cea:	1f 93       	push	r17
    1cec:	cf 93       	push	r28
    1cee:	df 93       	push	r29
    1cf0:	cd b7       	in	r28, 0x3d	; 61
    1cf2:	de b7       	in	r29, 0x3e	; 62
    1cf4:	68 97       	sbiw	r28, 0x18	; 24
    1cf6:	0f b6       	in	r0, 0x3f	; 63
    1cf8:	f8 94       	cli
    1cfa:	de bf       	out	0x3e, r29	; 62
    1cfc:	0f be       	out	0x3f, r0	; 63
    1cfe:	cd bf       	out	0x3d, r28	; 61
    1d00:	7c 01       	movw	r14, r24
    1d02:	2a 01       	movw	r4, r20
    1d04:	3b 01       	movw	r6, r22
    1d06:	90 e8       	ldi	r25, 0x80	; 128
    1d08:	c9 2e       	mov	r12, r25
    1d0a:	cc 86       	std	Y+12, r12	; 0x0c
    1d0c:	dd 24       	eor	r13, r13
    1d0e:	d3 94       	inc	r13
    1d10:	db 86       	std	Y+11, r13	; 0x0b
    1d12:	d9 82       	std	Y+1, r13	; 0x01
    1d14:	57 01       	movw	r10, r14
    1d16:	8f ef       	ldi	r24, 0xFF	; 255
    1d18:	a8 1a       	sub	r10, r24
    1d1a:	b8 0a       	sbc	r11, r24
    1d1c:	8e 01       	movw	r16, r28
    1d1e:	05 5f       	subi	r16, 0xF5	; 245
    1d20:	1f 4f       	sbci	r17, 0xFF	; 255
    1d22:	9e 01       	movw	r18, r28
    1d24:	2f 5f       	subi	r18, 0xFF	; 255
    1d26:	3f 4f       	sbci	r19, 0xFF	; 255
    1d28:	ae 01       	movw	r20, r28
    1d2a:	44 5f       	subi	r20, 0xF4	; 244
    1d2c:	5f 4f       	sbci	r21, 0xFF	; 255
    1d2e:	b5 01       	movw	r22, r10
    1d30:	8c e3       	ldi	r24, 0x3C	; 60
    1d32:	91 e0       	ldi	r25, 0x01	; 1
    1d34:	0e 94 4e 09 	call	0x129c	; 0x129c <_ZN3TWI5writeERKhS1_S1_PS0_>
    1d38:	f7 01       	movw	r30, r14
    1d3a:	80 83       	st	Z, r24
    1d3c:	99 24       	eor	r9, r9
    1d3e:	9a 94       	dec	r9
    1d40:	9e 86       	std	Y+14, r9	; 0x0e
    1d42:	dd 86       	std	Y+13, r13	; 0x0d
    1d44:	d9 82       	std	Y+1, r13	; 0x01
    1d46:	0e 5f       	subi	r16, 0xFE	; 254
    1d48:	1f 4f       	sbci	r17, 0xFF	; 255
    1d4a:	9e 01       	movw	r18, r28
    1d4c:	2f 5f       	subi	r18, 0xFF	; 255
    1d4e:	3f 4f       	sbci	r19, 0xFF	; 255
    1d50:	ae 01       	movw	r20, r28
    1d52:	42 5f       	subi	r20, 0xF2	; 242
    1d54:	5f 4f       	sbci	r21, 0xFF	; 255
    1d56:	b5 01       	movw	r22, r10
    1d58:	8c e3       	ldi	r24, 0x3C	; 60
    1d5a:	91 e0       	ldi	r25, 0x01	; 1
    1d5c:	0e 94 4e 09 	call	0x129c	; 0x129c <_ZN3TWI5writeERKhS1_S1_PS0_>
    1d60:	f7 01       	movw	r30, r14
    1d62:	80 83       	st	Z, r24
    1d64:	18 8a       	std	Y+16, r1	; 0x10
    1d66:	1f 86       	std	Y+15, r1	; 0x0f
    1d68:	d9 82       	std	Y+1, r13	; 0x01
    1d6a:	0e 5f       	subi	r16, 0xFE	; 254
    1d6c:	1f 4f       	sbci	r17, 0xFF	; 255
    1d6e:	9e 01       	movw	r18, r28
    1d70:	2f 5f       	subi	r18, 0xFF	; 255
    1d72:	3f 4f       	sbci	r19, 0xFF	; 255
    1d74:	ae 01       	movw	r20, r28
    1d76:	40 5f       	subi	r20, 0xF0	; 240
    1d78:	5f 4f       	sbci	r21, 0xFF	; 255
    1d7a:	b5 01       	movw	r22, r10
    1d7c:	8c e3       	ldi	r24, 0x3C	; 60
    1d7e:	91 e0       	ldi	r25, 0x01	; 1
    1d80:	0e 94 4e 09 	call	0x129c	; 0x129c <_ZN3TWI5writeERKhS1_S1_PS0_>
    1d84:	f7 01       	movw	r30, r14
    1d86:	80 83       	st	Z, r24
    1d88:	87 81       	ldd	r24, Z+7	; 0x07
    1d8a:	91 e9       	ldi	r25, 0x91	; 145
    1d8c:	9a 8b       	std	Y+18, r25	; 0x12
    1d8e:	89 8b       	std	Y+17, r24	; 0x11
    1d90:	d9 82       	std	Y+1, r13	; 0x01
    1d92:	0e 5f       	subi	r16, 0xFE	; 254
    1d94:	1f 4f       	sbci	r17, 0xFF	; 255
    1d96:	9e 01       	movw	r18, r28
    1d98:	2f 5f       	subi	r18, 0xFF	; 255
    1d9a:	3f 4f       	sbci	r19, 0xFF	; 255
    1d9c:	ae 01       	movw	r20, r28
    1d9e:	4e 5e       	subi	r20, 0xEE	; 238
    1da0:	5f 4f       	sbci	r21, 0xFF	; 255
    1da2:	b5 01       	movw	r22, r10
    1da4:	8c e3       	ldi	r24, 0x3C	; 60
    1da6:	91 e0       	ldi	r25, 0x01	; 1
    1da8:	0e 94 4e 09 	call	0x129c	; 0x129c <_ZN3TWI5writeERKhS1_S1_PS0_>
    1dac:	f7 01       	movw	r30, r14
    1dae:	80 83       	st	Z, r24
    1db0:	1c 8a       	std	Y+20, r1	; 0x14
    1db2:	db 8a       	std	Y+19, r13	; 0x13
    1db4:	d9 82       	std	Y+1, r13	; 0x01
    1db6:	0e 5f       	subi	r16, 0xFE	; 254
    1db8:	1f 4f       	sbci	r17, 0xFF	; 255
    1dba:	9e 01       	movw	r18, r28
    1dbc:	2f 5f       	subi	r18, 0xFF	; 255
    1dbe:	3f 4f       	sbci	r19, 0xFF	; 255
    1dc0:	ae 01       	movw	r20, r28
    1dc2:	4c 5e       	subi	r20, 0xEC	; 236
    1dc4:	5f 4f       	sbci	r21, 0xFF	; 255
    1dc6:	b5 01       	movw	r22, r10
    1dc8:	8c e3       	ldi	r24, 0x3C	; 60
    1dca:	91 e0       	ldi	r25, 0x01	; 1
    1dcc:	0e 94 4e 09 	call	0x129c	; 0x129c <_ZN3TWI5writeERKhS1_S1_PS0_>
    1dd0:	f7 01       	movw	r30, r14
    1dd2:	80 83       	st	Z, r24
    1dd4:	9e 8a       	std	Y+22, r9	; 0x16
    1dd6:	1d 8a       	std	Y+21, r1	; 0x15
    1dd8:	d9 82       	std	Y+1, r13	; 0x01
    1dda:	0e 5f       	subi	r16, 0xFE	; 254
    1ddc:	1f 4f       	sbci	r17, 0xFF	; 255
    1dde:	9e 01       	movw	r18, r28
    1de0:	2f 5f       	subi	r18, 0xFF	; 255
    1de2:	3f 4f       	sbci	r19, 0xFF	; 255
    1de4:	ae 01       	movw	r20, r28
    1de6:	4a 5e       	subi	r20, 0xEA	; 234
    1de8:	5f 4f       	sbci	r21, 0xFF	; 255
    1dea:	b5 01       	movw	r22, r10
    1dec:	8c e3       	ldi	r24, 0x3C	; 60
    1dee:	91 e0       	ldi	r25, 0x01	; 1
    1df0:	0e 94 4e 09 	call	0x129c	; 0x129c <_ZN3TWI5writeERKhS1_S1_PS0_>
    1df4:	f7 01       	movw	r30, r14
    1df6:	80 83       	st	Z, r24
    1df8:	c8 8e       	std	Y+24, r12	; 0x18
    1dfa:	1f 8a       	std	Y+23, r1	; 0x17
    1dfc:	d9 82       	std	Y+1, r13	; 0x01
    1dfe:	0e 5f       	subi	r16, 0xFE	; 254
    1e00:	1f 4f       	sbci	r17, 0xFF	; 255
    1e02:	9e 01       	movw	r18, r28
    1e04:	2f 5f       	subi	r18, 0xFF	; 255
    1e06:	3f 4f       	sbci	r19, 0xFF	; 255
    1e08:	ae 01       	movw	r20, r28
    1e0a:	48 5e       	subi	r20, 0xE8	; 232
    1e0c:	5f 4f       	sbci	r21, 0xFF	; 255
    1e0e:	b5 01       	movw	r22, r10
    1e10:	8c e3       	ldi	r24, 0x3C	; 60
    1e12:	91 e0       	ldi	r25, 0x01	; 1
    1e14:	0e 94 4e 09 	call	0x129c	; 0x129c <_ZN3TWI5writeERKhS1_S1_PS0_>
    1e18:	f7 01       	movw	r30, r14
    1e1a:	80 83       	st	Z, r24
    1e1c:	41 14       	cp	r4, r1
    1e1e:	51 04       	cpc	r5, r1
    1e20:	61 04       	cpc	r6, r1
    1e22:	71 04       	cpc	r7, r1
    1e24:	09 f4       	brne	.+2      	; 0x1e28 <_ZN7VL53L0X15startContinuousEm+0x156>
    1e26:	61 c0       	rjmp	.+194    	; 0x1eea <_ZN7VL53L0X15startContinuousEm+0x218>
    1e28:	88 ef       	ldi	r24, 0xF8	; 248
    1e2a:	8e 83       	std	Y+6, r24	; 0x06
    1e2c:	82 e0       	ldi	r24, 0x02	; 2
    1e2e:	8d 83       	std	Y+5, r24	; 0x05
    1e30:	06 51       	subi	r16, 0x16	; 22
    1e32:	11 09       	sbc	r17, r1
    1e34:	9e 01       	movw	r18, r28
    1e36:	2b 5f       	subi	r18, 0xFB	; 251
    1e38:	3f 4f       	sbci	r19, 0xFF	; 255
    1e3a:	ae 01       	movw	r20, r28
    1e3c:	4a 5f       	subi	r20, 0xFA	; 250
    1e3e:	5f 4f       	sbci	r21, 0xFF	; 255
    1e40:	b5 01       	movw	r22, r10
    1e42:	8c e3       	ldi	r24, 0x3C	; 60
    1e44:	91 e0       	ldi	r25, 0x01	; 1
    1e46:	0e 94 93 09 	call	0x1326	; 0x1326 <_ZN3TWI4readERKhS1_S1_Ph>
    1e4a:	f7 01       	movw	r30, r14
    1e4c:	80 83       	st	Z, r24
    1e4e:	a9 81       	ldd	r26, Y+1	; 0x01
    1e50:	ba 81       	ldd	r27, Y+2	; 0x02
    1e52:	ba 27       	eor	r27, r26
    1e54:	ab 27       	eor	r26, r27
    1e56:	ba 27       	eor	r27, r26
    1e58:	10 97       	sbiw	r26, 0x00	; 0
    1e5a:	31 f0       	breq	.+12     	; 0x1e68 <_ZN7VL53L0X15startContinuousEm+0x196>
    1e5c:	a3 01       	movw	r20, r6
    1e5e:	92 01       	movw	r18, r4
    1e60:	0e 94 6e 24 	call	0x48dc	; 0x48dc <__muluhisi3>
    1e64:	2b 01       	movw	r4, r22
    1e66:	3c 01       	movw	r6, r24
    1e68:	84 e0       	ldi	r24, 0x04	; 4
    1e6a:	d8 2e       	mov	r13, r24
    1e6c:	d8 86       	std	Y+8, r13	; 0x08
    1e6e:	49 82       	std	Y+1, r4	; 0x01
    1e70:	5a 82       	std	Y+2, r5	; 0x02
    1e72:	6b 82       	std	Y+3, r6	; 0x03
    1e74:	7c 82       	std	Y+4, r7	; 0x04
    1e76:	dd 82       	std	Y+5, r13	; 0x05
    1e78:	8e 01       	movw	r16, r28
    1e7a:	0f 5f       	subi	r16, 0xFF	; 255
    1e7c:	1f 4f       	sbci	r17, 0xFF	; 255
    1e7e:	9e 01       	movw	r18, r28
    1e80:	2b 5f       	subi	r18, 0xFB	; 251
    1e82:	3f 4f       	sbci	r19, 0xFF	; 255
    1e84:	ae 01       	movw	r20, r28
    1e86:	48 5f       	subi	r20, 0xF8	; 248
    1e88:	5f 4f       	sbci	r21, 0xFF	; 255
    1e8a:	b5 01       	movw	r22, r10
    1e8c:	8c e3       	ldi	r24, 0x3C	; 60
    1e8e:	91 e0       	ldi	r25, 0x01	; 1
    1e90:	0e 94 4e 09 	call	0x129c	; 0x129c <_ZN3TWI5writeERKhS1_S1_PS0_>
    1e94:	f7 01       	movw	r30, r14
    1e96:	80 83       	st	Z, r24
    1e98:	1a 86       	std	Y+10, r1	; 0x0a
    1e9a:	d9 86       	std	Y+9, r13	; 0x09
    1e9c:	81 e0       	ldi	r24, 0x01	; 1
    1e9e:	8d 83       	std	Y+5, r24	; 0x05
    1ea0:	08 5f       	subi	r16, 0xF8	; 248
    1ea2:	1f 4f       	sbci	r17, 0xFF	; 255
    1ea4:	9e 01       	movw	r18, r28
    1ea6:	2b 5f       	subi	r18, 0xFB	; 251
    1ea8:	3f 4f       	sbci	r19, 0xFF	; 255
    1eaa:	ae 01       	movw	r20, r28
    1eac:	46 5f       	subi	r20, 0xF6	; 246
    1eae:	5f 4f       	sbci	r21, 0xFF	; 255
    1eb0:	b5 01       	movw	r22, r10
    1eb2:	8c e3       	ldi	r24, 0x3C	; 60
    1eb4:	91 e0       	ldi	r25, 0x01	; 1
    1eb6:	0e 94 4e 09 	call	0x129c	; 0x129c <_ZN3TWI5writeERKhS1_S1_PS0_>
    1eba:	f7 01       	movw	r30, r14
    1ebc:	80 83       	st	Z, r24
    1ebe:	68 96       	adiw	r28, 0x18	; 24
    1ec0:	0f b6       	in	r0, 0x3f	; 63
    1ec2:	f8 94       	cli
    1ec4:	de bf       	out	0x3e, r29	; 62
    1ec6:	0f be       	out	0x3f, r0	; 63
    1ec8:	cd bf       	out	0x3d, r28	; 61
    1eca:	df 91       	pop	r29
    1ecc:	cf 91       	pop	r28
    1ece:	1f 91       	pop	r17
    1ed0:	0f 91       	pop	r16
    1ed2:	ff 90       	pop	r15
    1ed4:	ef 90       	pop	r14
    1ed6:	df 90       	pop	r13
    1ed8:	cf 90       	pop	r12
    1eda:	bf 90       	pop	r11
    1edc:	af 90       	pop	r10
    1ede:	9f 90       	pop	r9
    1ee0:	7f 90       	pop	r7
    1ee2:	6f 90       	pop	r6
    1ee4:	5f 90       	pop	r5
    1ee6:	4f 90       	pop	r4
    1ee8:	08 95       	ret
    1eea:	1f 82       	std	Y+7, r1	; 0x07
    1eec:	82 e0       	ldi	r24, 0x02	; 2
    1eee:	8d 83       	std	Y+5, r24	; 0x05
    1ef0:	d9 82       	std	Y+1, r13	; 0x01
    1ef2:	8e 01       	movw	r16, r28
    1ef4:	0b 5f       	subi	r16, 0xFB	; 251
    1ef6:	1f 4f       	sbci	r17, 0xFF	; 255
    1ef8:	9e 01       	movw	r18, r28
    1efa:	2f 5f       	subi	r18, 0xFF	; 255
    1efc:	3f 4f       	sbci	r19, 0xFF	; 255
    1efe:	ae 01       	movw	r20, r28
    1f00:	49 5f       	subi	r20, 0xF9	; 249
    1f02:	5f 4f       	sbci	r21, 0xFF	; 255
    1f04:	d5 cf       	rjmp	.-86     	; 0x1eb0 <_ZN7VL53L0X15startContinuousEm+0x1de>

00001f06 <_ZN7VL53L0X13fastReadRangeEv>:
    1f06:	af 92       	push	r10
    1f08:	bf 92       	push	r11
    1f0a:	cf 92       	push	r12
    1f0c:	df 92       	push	r13
    1f0e:	ef 92       	push	r14
    1f10:	ff 92       	push	r15
    1f12:	0f 93       	push	r16
    1f14:	1f 93       	push	r17
    1f16:	cf 93       	push	r28
    1f18:	df 93       	push	r29
    1f1a:	00 d0       	rcall	.+0      	; 0x1f1c <_ZN7VL53L0X13fastReadRangeEv+0x16>
    1f1c:	00 d0       	rcall	.+0      	; 0x1f1e <_ZN7VL53L0X13fastReadRangeEv+0x18>
    1f1e:	1f 92       	push	r1
    1f20:	cd b7       	in	r28, 0x3d	; 61
    1f22:	de b7       	in	r29, 0x3e	; 62
    1f24:	6c 01       	movw	r12, r24
    1f26:	8e e1       	ldi	r24, 0x1E	; 30
    1f28:	8c 83       	std	Y+4, r24	; 0x04
    1f2a:	82 e0       	ldi	r24, 0x02	; 2
    1f2c:	8b 83       	std	Y+3, r24	; 0x03
    1f2e:	56 01       	movw	r10, r12
    1f30:	8f ef       	ldi	r24, 0xFF	; 255
    1f32:	a8 1a       	sub	r10, r24
    1f34:	b8 0a       	sbc	r11, r24
    1f36:	8e 01       	movw	r16, r28
    1f38:	0f 5f       	subi	r16, 0xFF	; 255
    1f3a:	1f 4f       	sbci	r17, 0xFF	; 255
    1f3c:	9e 01       	movw	r18, r28
    1f3e:	2d 5f       	subi	r18, 0xFD	; 253
    1f40:	3f 4f       	sbci	r19, 0xFF	; 255
    1f42:	ae 01       	movw	r20, r28
    1f44:	4c 5f       	subi	r20, 0xFC	; 252
    1f46:	5f 4f       	sbci	r21, 0xFF	; 255
    1f48:	b5 01       	movw	r22, r10
    1f4a:	8c e3       	ldi	r24, 0x3C	; 60
    1f4c:	91 e0       	ldi	r25, 0x01	; 1
    1f4e:	0e 94 93 09 	call	0x1326	; 0x1326 <_ZN3TWI4readERKhS1_S1_Ph>
    1f52:	f6 01       	movw	r30, r12
    1f54:	80 83       	st	Z, r24
    1f56:	e9 80       	ldd	r14, Y+1	; 0x01
    1f58:	fa 80       	ldd	r15, Y+2	; 0x02
    1f5a:	fe 24       	eor	r15, r14
    1f5c:	ef 24       	eor	r14, r15
    1f5e:	fe 24       	eor	r15, r14
    1f60:	8b e0       	ldi	r24, 0x0B	; 11
    1f62:	8d 83       	std	Y+5, r24	; 0x05
    1f64:	81 e0       	ldi	r24, 0x01	; 1
    1f66:	8b 83       	std	Y+3, r24	; 0x03
    1f68:	89 83       	std	Y+1, r24	; 0x01
    1f6a:	0e 5f       	subi	r16, 0xFE	; 254
    1f6c:	1f 4f       	sbci	r17, 0xFF	; 255
    1f6e:	9e 01       	movw	r18, r28
    1f70:	2f 5f       	subi	r18, 0xFF	; 255
    1f72:	3f 4f       	sbci	r19, 0xFF	; 255
    1f74:	ae 01       	movw	r20, r28
    1f76:	4b 5f       	subi	r20, 0xFB	; 251
    1f78:	5f 4f       	sbci	r21, 0xFF	; 255
    1f7a:	b5 01       	movw	r22, r10
    1f7c:	8c e3       	ldi	r24, 0x3C	; 60
    1f7e:	91 e0       	ldi	r25, 0x01	; 1
    1f80:	0e 94 4e 09 	call	0x129c	; 0x129c <_ZN3TWI5writeERKhS1_S1_PS0_>
    1f84:	f6 01       	movw	r30, r12
    1f86:	80 83       	st	Z, r24
    1f88:	c7 01       	movw	r24, r14
    1f8a:	0f 90       	pop	r0
    1f8c:	0f 90       	pop	r0
    1f8e:	0f 90       	pop	r0
    1f90:	0f 90       	pop	r0
    1f92:	0f 90       	pop	r0
    1f94:	df 91       	pop	r29
    1f96:	cf 91       	pop	r28
    1f98:	1f 91       	pop	r17
    1f9a:	0f 91       	pop	r16
    1f9c:	ff 90       	pop	r15
    1f9e:	ef 90       	pop	r14
    1fa0:	df 90       	pop	r13
    1fa2:	cf 90       	pop	r12
    1fa4:	bf 90       	pop	r11
    1fa6:	af 90       	pop	r10
    1fa8:	08 95       	ret

00001faa <_ZN7VL53L0X11getSpadInfoEPhPb>:
    1faa:	4f 92       	push	r4
    1fac:	5f 92       	push	r5
    1fae:	6f 92       	push	r6
    1fb0:	7f 92       	push	r7
    1fb2:	8f 92       	push	r8
    1fb4:	9f 92       	push	r9
    1fb6:	af 92       	push	r10
    1fb8:	bf 92       	push	r11
    1fba:	cf 92       	push	r12
    1fbc:	df 92       	push	r13
    1fbe:	ef 92       	push	r14
    1fc0:	ff 92       	push	r15
    1fc2:	0f 93       	push	r16
    1fc4:	1f 93       	push	r17
    1fc6:	cf 93       	push	r28
    1fc8:	df 93       	push	r29
    1fca:	cd b7       	in	r28, 0x3d	; 61
    1fcc:	de b7       	in	r29, 0x3e	; 62
    1fce:	a9 97       	sbiw	r28, 0x29	; 41
    1fd0:	0f b6       	in	r0, 0x3f	; 63
    1fd2:	f8 94       	cli
    1fd4:	de bf       	out	0x3e, r29	; 62
    1fd6:	0f be       	out	0x3f, r0	; 63
    1fd8:	cd bf       	out	0x3d, r28	; 61
    1fda:	7c 01       	movw	r14, r24
    1fdc:	4b 01       	movw	r8, r22
    1fde:	5a 01       	movw	r10, r20
    1fe0:	90 e8       	ldi	r25, 0x80	; 128
    1fe2:	49 2e       	mov	r4, r25
    1fe4:	4e 8a       	std	Y+22, r4	; 0x16
    1fe6:	77 24       	eor	r7, r7
    1fe8:	73 94       	inc	r7
    1fea:	7d 8a       	std	Y+21, r7	; 0x15
    1fec:	79 82       	std	Y+1, r7	; 0x01
    1fee:	67 01       	movw	r12, r14
    1ff0:	8f ef       	ldi	r24, 0xFF	; 255
    1ff2:	c8 1a       	sub	r12, r24
    1ff4:	d8 0a       	sbc	r13, r24
    1ff6:	8e 01       	movw	r16, r28
    1ff8:	0b 5e       	subi	r16, 0xEB	; 235
    1ffa:	1f 4f       	sbci	r17, 0xFF	; 255
    1ffc:	9e 01       	movw	r18, r28
    1ffe:	2f 5f       	subi	r18, 0xFF	; 255
    2000:	3f 4f       	sbci	r19, 0xFF	; 255
    2002:	ae 01       	movw	r20, r28
    2004:	4a 5e       	subi	r20, 0xEA	; 234
    2006:	5f 4f       	sbci	r21, 0xFF	; 255
    2008:	b6 01       	movw	r22, r12
    200a:	8c e3       	ldi	r24, 0x3C	; 60
    200c:	91 e0       	ldi	r25, 0x01	; 1
    200e:	0e 94 4e 09 	call	0x129c	; 0x129c <_ZN3TWI5writeERKhS1_S1_PS0_>
    2012:	f7 01       	movw	r30, r14
    2014:	80 83       	st	Z, r24
    2016:	55 24       	eor	r5, r5
    2018:	5a 94       	dec	r5
    201a:	58 8e       	std	Y+24, r5	; 0x18
    201c:	7f 8a       	std	Y+23, r7	; 0x17
    201e:	79 82       	std	Y+1, r7	; 0x01
    2020:	0e 5f       	subi	r16, 0xFE	; 254
    2022:	1f 4f       	sbci	r17, 0xFF	; 255
    2024:	9e 01       	movw	r18, r28
    2026:	2f 5f       	subi	r18, 0xFF	; 255
    2028:	3f 4f       	sbci	r19, 0xFF	; 255
    202a:	ae 01       	movw	r20, r28
    202c:	48 5e       	subi	r20, 0xE8	; 232
    202e:	5f 4f       	sbci	r21, 0xFF	; 255
    2030:	b6 01       	movw	r22, r12
    2032:	8c e3       	ldi	r24, 0x3C	; 60
    2034:	91 e0       	ldi	r25, 0x01	; 1
    2036:	0e 94 4e 09 	call	0x129c	; 0x129c <_ZN3TWI5writeERKhS1_S1_PS0_>
    203a:	f7 01       	movw	r30, r14
    203c:	80 83       	st	Z, r24
    203e:	1a 8e       	std	Y+26, r1	; 0x1a
    2040:	19 8e       	std	Y+25, r1	; 0x19
    2042:	79 82       	std	Y+1, r7	; 0x01
    2044:	0e 5f       	subi	r16, 0xFE	; 254
    2046:	1f 4f       	sbci	r17, 0xFF	; 255
    2048:	9e 01       	movw	r18, r28
    204a:	2f 5f       	subi	r18, 0xFF	; 255
    204c:	3f 4f       	sbci	r19, 0xFF	; 255
    204e:	ae 01       	movw	r20, r28
    2050:	46 5e       	subi	r20, 0xE6	; 230
    2052:	5f 4f       	sbci	r21, 0xFF	; 255
    2054:	b6 01       	movw	r22, r12
    2056:	8c e3       	ldi	r24, 0x3C	; 60
    2058:	91 e0       	ldi	r25, 0x01	; 1
    205a:	0e 94 4e 09 	call	0x129c	; 0x129c <_ZN3TWI5writeERKhS1_S1_PS0_>
    205e:	f7 01       	movw	r30, r14
    2060:	80 83       	st	Z, r24
    2062:	5c 8e       	std	Y+28, r5	; 0x1c
    2064:	86 e0       	ldi	r24, 0x06	; 6
    2066:	8b 8f       	std	Y+27, r24	; 0x1b
    2068:	79 82       	std	Y+1, r7	; 0x01
    206a:	0e 5f       	subi	r16, 0xFE	; 254
    206c:	1f 4f       	sbci	r17, 0xFF	; 255
    206e:	9e 01       	movw	r18, r28
    2070:	2f 5f       	subi	r18, 0xFF	; 255
    2072:	3f 4f       	sbci	r19, 0xFF	; 255
    2074:	ae 01       	movw	r20, r28
    2076:	44 5e       	subi	r20, 0xE4	; 228
    2078:	5f 4f       	sbci	r21, 0xFF	; 255
    207a:	b6 01       	movw	r22, r12
    207c:	8c e3       	ldi	r24, 0x3C	; 60
    207e:	91 e0       	ldi	r25, 0x01	; 1
    2080:	0e 94 4e 09 	call	0x129c	; 0x129c <_ZN3TWI5writeERKhS1_S1_PS0_>
    2084:	f7 01       	movw	r30, r14
    2086:	80 83       	st	Z, r24
    2088:	23 e8       	ldi	r18, 0x83	; 131
    208a:	62 2e       	mov	r6, r18
    208c:	6d 8e       	std	Y+29, r6	; 0x1d
    208e:	79 82       	std	Y+1, r7	; 0x01
    2090:	09 51       	subi	r16, 0x19	; 25
    2092:	11 09       	sbc	r17, r1
    2094:	9e 01       	movw	r18, r28
    2096:	2f 5f       	subi	r18, 0xFF	; 255
    2098:	3f 4f       	sbci	r19, 0xFF	; 255
    209a:	ae 01       	movw	r20, r28
    209c:	43 5e       	subi	r20, 0xE3	; 227
    209e:	5f 4f       	sbci	r21, 0xFF	; 255
    20a0:	b6 01       	movw	r22, r12
    20a2:	8c e3       	ldi	r24, 0x3C	; 60
    20a4:	91 e0       	ldi	r25, 0x01	; 1
    20a6:	0e 94 93 09 	call	0x1326	; 0x1326 <_ZN3TWI4readERKhS1_S1_Ph>
    20aa:	f7 01       	movw	r30, r14
    20ac:	80 83       	st	Z, r24
    20ae:	8a 81       	ldd	r24, Y+2	; 0x02
    20b0:	6f 8e       	std	Y+31, r6	; 0x1f
    20b2:	84 60       	ori	r24, 0x04	; 4
    20b4:	8e 8f       	std	Y+30, r24	; 0x1e
    20b6:	79 82       	std	Y+1, r7	; 0x01
    20b8:	04 5e       	subi	r16, 0xE4	; 228
    20ba:	1f 4f       	sbci	r17, 0xFF	; 255
    20bc:	9e 01       	movw	r18, r28
    20be:	2f 5f       	subi	r18, 0xFF	; 255
    20c0:	3f 4f       	sbci	r19, 0xFF	; 255
    20c2:	ae 01       	movw	r20, r28
    20c4:	41 5e       	subi	r20, 0xE1	; 225
    20c6:	5f 4f       	sbci	r21, 0xFF	; 255
    20c8:	b6 01       	movw	r22, r12
    20ca:	8c e3       	ldi	r24, 0x3C	; 60
    20cc:	91 e0       	ldi	r25, 0x01	; 1
    20ce:	0e 94 4e 09 	call	0x129c	; 0x129c <_ZN3TWI5writeERKhS1_S1_PS0_>
    20d2:	f7 01       	movw	r30, r14
    20d4:	80 83       	st	Z, r24
    20d6:	59 a2       	std	Y+33, r5	; 0x21
    20d8:	87 e0       	ldi	r24, 0x07	; 7
    20da:	88 a3       	std	Y+32, r24	; 0x20
    20dc:	79 82       	std	Y+1, r7	; 0x01
    20de:	0e 5f       	subi	r16, 0xFE	; 254
    20e0:	1f 4f       	sbci	r17, 0xFF	; 255
    20e2:	9e 01       	movw	r18, r28
    20e4:	2f 5f       	subi	r18, 0xFF	; 255
    20e6:	3f 4f       	sbci	r19, 0xFF	; 255
    20e8:	ae 01       	movw	r20, r28
    20ea:	4f 5d       	subi	r20, 0xDF	; 223
    20ec:	5f 4f       	sbci	r21, 0xFF	; 255
    20ee:	b6 01       	movw	r22, r12
    20f0:	8c e3       	ldi	r24, 0x3C	; 60
    20f2:	91 e0       	ldi	r25, 0x01	; 1
    20f4:	0e 94 4e 09 	call	0x129c	; 0x129c <_ZN3TWI5writeERKhS1_S1_PS0_>
    20f8:	f7 01       	movw	r30, r14
    20fa:	80 83       	st	Z, r24
    20fc:	81 e8       	ldi	r24, 0x81	; 129
    20fe:	8b a3       	std	Y+35, r24	; 0x23
    2100:	7a a2       	std	Y+34, r7	; 0x22
    2102:	79 82       	std	Y+1, r7	; 0x01
    2104:	0e 5f       	subi	r16, 0xFE	; 254
    2106:	1f 4f       	sbci	r17, 0xFF	; 255
    2108:	9e 01       	movw	r18, r28
    210a:	2f 5f       	subi	r18, 0xFF	; 255
    210c:	3f 4f       	sbci	r19, 0xFF	; 255
    210e:	ae 01       	movw	r20, r28
    2110:	4d 5d       	subi	r20, 0xDD	; 221
    2112:	5f 4f       	sbci	r21, 0xFF	; 255
    2114:	b6 01       	movw	r22, r12
    2116:	8c e3       	ldi	r24, 0x3C	; 60
    2118:	91 e0       	ldi	r25, 0x01	; 1
    211a:	0e 94 4e 09 	call	0x129c	; 0x129c <_ZN3TWI5writeERKhS1_S1_PS0_>
    211e:	f7 01       	movw	r30, r14
    2120:	80 83       	st	Z, r24
    2122:	4d a2       	std	Y+37, r4	; 0x25
    2124:	7c a2       	std	Y+36, r7	; 0x24
    2126:	79 82       	std	Y+1, r7	; 0x01
    2128:	0e 5f       	subi	r16, 0xFE	; 254
    212a:	1f 4f       	sbci	r17, 0xFF	; 255
    212c:	9e 01       	movw	r18, r28
    212e:	2f 5f       	subi	r18, 0xFF	; 255
    2130:	3f 4f       	sbci	r19, 0xFF	; 255
    2132:	ae 01       	movw	r20, r28
    2134:	4b 5d       	subi	r20, 0xDB	; 219
    2136:	5f 4f       	sbci	r21, 0xFF	; 255
    2138:	b6 01       	movw	r22, r12
    213a:	8c e3       	ldi	r24, 0x3C	; 60
    213c:	91 e0       	ldi	r25, 0x01	; 1
    213e:	0e 94 4e 09 	call	0x129c	; 0x129c <_ZN3TWI5writeERKhS1_S1_PS0_>
    2142:	f7 01       	movw	r30, r14
    2144:	80 83       	st	Z, r24
    2146:	84 e9       	ldi	r24, 0x94	; 148
    2148:	8f a3       	std	Y+39, r24	; 0x27
    214a:	8b e6       	ldi	r24, 0x6B	; 107
    214c:	8e a3       	std	Y+38, r24	; 0x26
    214e:	79 82       	std	Y+1, r7	; 0x01
    2150:	0e 5f       	subi	r16, 0xFE	; 254
    2152:	1f 4f       	sbci	r17, 0xFF	; 255
    2154:	9e 01       	movw	r18, r28
    2156:	2f 5f       	subi	r18, 0xFF	; 255
    2158:	3f 4f       	sbci	r19, 0xFF	; 255
    215a:	ae 01       	movw	r20, r28
    215c:	49 5d       	subi	r20, 0xD9	; 217
    215e:	5f 4f       	sbci	r21, 0xFF	; 255
    2160:	b6 01       	movw	r22, r12
    2162:	8c e3       	ldi	r24, 0x3C	; 60
    2164:	91 e0       	ldi	r25, 0x01	; 1
    2166:	0e 94 4e 09 	call	0x129c	; 0x129c <_ZN3TWI5writeERKhS1_S1_PS0_>
    216a:	f7 01       	movw	r30, r14
    216c:	80 83       	st	Z, r24
    216e:	69 a6       	std	Y+41, r6	; 0x29
    2170:	18 a6       	std	Y+40, r1	; 0x28
    2172:	79 82       	std	Y+1, r7	; 0x01
    2174:	0e 5f       	subi	r16, 0xFE	; 254
    2176:	1f 4f       	sbci	r17, 0xFF	; 255
    2178:	9e 01       	movw	r18, r28
    217a:	2f 5f       	subi	r18, 0xFF	; 255
    217c:	3f 4f       	sbci	r19, 0xFF	; 255
    217e:	ae 01       	movw	r20, r28
    2180:	47 5d       	subi	r20, 0xD7	; 215
    2182:	5f 4f       	sbci	r21, 0xFF	; 255
    2184:	b6 01       	movw	r22, r12
    2186:	8c e3       	ldi	r24, 0x3C	; 60
    2188:	91 e0       	ldi	r25, 0x01	; 1
    218a:	0e 94 4e 09 	call	0x129c	; 0x129c <_ZN3TWI5writeERKhS1_S1_PS0_>
    218e:	f7 01       	movw	r30, r14
    2190:	80 83       	st	Z, r24
    2192:	42 e0       	ldi	r20, 0x02	; 2
    2194:	50 e0       	ldi	r21, 0x00	; 0
    2196:	60 e0       	ldi	r22, 0x00	; 0
    2198:	70 e0       	ldi	r23, 0x00	; 0
    219a:	88 e8       	ldi	r24, 0x88	; 136
    219c:	91 e0       	ldi	r25, 0x01	; 1
    219e:	0e 94 ff 08 	call	0x11fe	; 0x11fe <_ZN4Time5delayEm>
    21a2:	80 91 88 01 	lds	r24, 0x0188	; 0x800188 <TIME>
    21a6:	90 91 89 01 	lds	r25, 0x0189	; 0x800189 <TIME+0x1>
    21aa:	a0 91 8a 01 	lds	r26, 0x018A	; 0x80018a <TIME+0x2>
    21ae:	b0 91 8b 01 	lds	r27, 0x018B	; 0x80018b <TIME+0x3>
    21b2:	f7 01       	movw	r30, r14
    21b4:	96 83       	std	Z+6, r25	; 0x06
    21b6:	85 83       	std	Z+5, r24	; 0x05
    21b8:	83 e8       	ldi	r24, 0x83	; 131
    21ba:	48 2e       	mov	r4, r24
    21bc:	6c 8a       	std	Y+20, r6	; 0x14
    21be:	55 24       	eor	r5, r5
    21c0:	53 94       	inc	r5
    21c2:	79 82       	std	Y+1, r7	; 0x01
    21c4:	8e 01       	movw	r16, r28
    21c6:	0e 5f       	subi	r16, 0xFE	; 254
    21c8:	1f 4f       	sbci	r17, 0xFF	; 255
    21ca:	9e 01       	movw	r18, r28
    21cc:	2f 5f       	subi	r18, 0xFF	; 255
    21ce:	3f 4f       	sbci	r19, 0xFF	; 255
    21d0:	ae 01       	movw	r20, r28
    21d2:	4c 5e       	subi	r20, 0xEC	; 236
    21d4:	5f 4f       	sbci	r21, 0xFF	; 255
    21d6:	b6 01       	movw	r22, r12
    21d8:	8c e3       	ldi	r24, 0x3C	; 60
    21da:	91 e0       	ldi	r25, 0x01	; 1
    21dc:	0e 94 93 09 	call	0x1326	; 0x1326 <_ZN3TWI4readERKhS1_S1_Ph>
    21e0:	f7 01       	movw	r30, r14
    21e2:	80 83       	st	Z, r24
    21e4:	8a 81       	ldd	r24, Y+2	; 0x02
    21e6:	81 11       	cpse	r24, r1
    21e8:	15 c0       	rjmp	.+42     	; 0x2214 <_ZN7VL53L0X11getSpadInfoEPhPb+0x26a>
    21ea:	82 81       	ldd	r24, Z+2	; 0x02
    21ec:	93 81       	ldd	r25, Z+3	; 0x03
    21ee:	00 97       	sbiw	r24, 0x00	; 0
    21f0:	19 f3       	breq	.-58     	; 0x21b8 <_ZN7VL53L0X11getSpadInfoEPhPb+0x20e>
    21f2:	40 91 88 01 	lds	r20, 0x0188	; 0x800188 <TIME>
    21f6:	50 91 89 01 	lds	r21, 0x0189	; 0x800189 <TIME+0x1>
    21fa:	60 91 8a 01 	lds	r22, 0x018A	; 0x80018a <TIME+0x2>
    21fe:	70 91 8b 01 	lds	r23, 0x018B	; 0x80018b <TIME+0x3>
    2202:	25 81       	ldd	r18, Z+5	; 0x05
    2204:	36 81       	ldd	r19, Z+6	; 0x06
    2206:	42 1b       	sub	r20, r18
    2208:	53 0b       	sbc	r21, r19
    220a:	84 17       	cp	r24, r20
    220c:	95 07       	cpc	r25, r21
    220e:	a0 f6       	brcc	.-88     	; 0x21b8 <_ZN7VL53L0X11getSpadInfoEPhPb+0x20e>
    2210:	80 e0       	ldi	r24, 0x00	; 0
    2212:	c2 c0       	rjmp	.+388    	; 0x2398 <_ZN7VL53L0X11getSpadInfoEPhPb+0x3ee>
    2214:	4b 82       	std	Y+3, r4	; 0x03
    2216:	5a 82       	std	Y+2, r5	; 0x02
    2218:	59 82       	std	Y+1, r5	; 0x01
    221a:	8e 01       	movw	r16, r28
    221c:	0e 5f       	subi	r16, 0xFE	; 254
    221e:	1f 4f       	sbci	r17, 0xFF	; 255
    2220:	9e 01       	movw	r18, r28
    2222:	2f 5f       	subi	r18, 0xFF	; 255
    2224:	3f 4f       	sbci	r19, 0xFF	; 255
    2226:	ae 01       	movw	r20, r28
    2228:	4d 5f       	subi	r20, 0xFD	; 253
    222a:	5f 4f       	sbci	r21, 0xFF	; 255
    222c:	b6 01       	movw	r22, r12
    222e:	8c e3       	ldi	r24, 0x3C	; 60
    2230:	91 e0       	ldi	r25, 0x01	; 1
    2232:	0e 94 4e 09 	call	0x129c	; 0x129c <_ZN3TWI5writeERKhS1_S1_PS0_>
    2236:	f7 01       	movw	r30, r14
    2238:	80 83       	st	Z, r24
    223a:	82 e9       	ldi	r24, 0x92	; 146
    223c:	8d 83       	std	Y+5, r24	; 0x05
    223e:	59 82       	std	Y+1, r5	; 0x01
    2240:	0e 5f       	subi	r16, 0xFE	; 254
    2242:	1f 4f       	sbci	r17, 0xFF	; 255
    2244:	9e 01       	movw	r18, r28
    2246:	2f 5f       	subi	r18, 0xFF	; 255
    2248:	3f 4f       	sbci	r19, 0xFF	; 255
    224a:	ae 01       	movw	r20, r28
    224c:	4b 5f       	subi	r20, 0xFB	; 251
    224e:	5f 4f       	sbci	r21, 0xFF	; 255
    2250:	b6 01       	movw	r22, r12
    2252:	8c e3       	ldi	r24, 0x3C	; 60
    2254:	91 e0       	ldi	r25, 0x01	; 1
    2256:	0e 94 93 09 	call	0x1326	; 0x1326 <_ZN3TWI4readERKhS1_S1_Ph>
    225a:	f7 01       	movw	r30, r14
    225c:	80 83       	st	Z, r24
    225e:	8c 81       	ldd	r24, Y+4	; 0x04
    2260:	98 2f       	mov	r25, r24
    2262:	9f 77       	andi	r25, 0x7F	; 127
    2264:	f4 01       	movw	r30, r8
    2266:	90 83       	st	Z, r25
    2268:	88 1f       	adc	r24, r24
    226a:	88 27       	eor	r24, r24
    226c:	88 1f       	adc	r24, r24
    226e:	f5 01       	movw	r30, r10
    2270:	80 83       	st	Z, r24
    2272:	81 e8       	ldi	r24, 0x81	; 129
    2274:	8e 83       	std	Y+6, r24	; 0x06
    2276:	1c 82       	std	Y+4, r1	; 0x04
    2278:	59 82       	std	Y+1, r5	; 0x01
    227a:	9e 01       	movw	r18, r28
    227c:	2f 5f       	subi	r18, 0xFF	; 255
    227e:	3f 4f       	sbci	r19, 0xFF	; 255
    2280:	ae 01       	movw	r20, r28
    2282:	4a 5f       	subi	r20, 0xFA	; 250
    2284:	5f 4f       	sbci	r21, 0xFF	; 255
    2286:	b6 01       	movw	r22, r12
    2288:	8c e3       	ldi	r24, 0x3C	; 60
    228a:	91 e0       	ldi	r25, 0x01	; 1
    228c:	0e 94 4e 09 	call	0x129c	; 0x129c <_ZN3TWI5writeERKhS1_S1_PS0_>
    2290:	f7 01       	movw	r30, r14
    2292:	80 83       	st	Z, r24
    2294:	bb 24       	eor	r11, r11
    2296:	ba 94       	dec	r11
    2298:	b8 86       	std	Y+8, r11	; 0x08
    229a:	86 e0       	ldi	r24, 0x06	; 6
    229c:	8f 83       	std	Y+7, r24	; 0x07
    229e:	59 82       	std	Y+1, r5	; 0x01
    22a0:	0d 5f       	subi	r16, 0xFD	; 253
    22a2:	1f 4f       	sbci	r17, 0xFF	; 255
    22a4:	9e 01       	movw	r18, r28
    22a6:	2f 5f       	subi	r18, 0xFF	; 255
    22a8:	3f 4f       	sbci	r19, 0xFF	; 255
    22aa:	ae 01       	movw	r20, r28
    22ac:	48 5f       	subi	r20, 0xF8	; 248
    22ae:	5f 4f       	sbci	r21, 0xFF	; 255
    22b0:	b6 01       	movw	r22, r12
    22b2:	8c e3       	ldi	r24, 0x3C	; 60
    22b4:	91 e0       	ldi	r25, 0x01	; 1
    22b6:	0e 94 4e 09 	call	0x129c	; 0x129c <_ZN3TWI5writeERKhS1_S1_PS0_>
    22ba:	f7 01       	movw	r30, r14
    22bc:	80 83       	st	Z, r24
    22be:	4a 86       	std	Y+10, r4	; 0x0a
    22c0:	59 82       	std	Y+1, r5	; 0x01
    22c2:	0e 5f       	subi	r16, 0xFE	; 254
    22c4:	1f 4f       	sbci	r17, 0xFF	; 255
    22c6:	9e 01       	movw	r18, r28
    22c8:	2f 5f       	subi	r18, 0xFF	; 255
    22ca:	3f 4f       	sbci	r19, 0xFF	; 255
    22cc:	ae 01       	movw	r20, r28
    22ce:	46 5f       	subi	r20, 0xF6	; 246
    22d0:	5f 4f       	sbci	r21, 0xFF	; 255
    22d2:	b6 01       	movw	r22, r12
    22d4:	8c e3       	ldi	r24, 0x3C	; 60
    22d6:	91 e0       	ldi	r25, 0x01	; 1
    22d8:	0e 94 93 09 	call	0x1326	; 0x1326 <_ZN3TWI4readERKhS1_S1_Ph>
    22dc:	f7 01       	movw	r30, r14
    22de:	80 83       	st	Z, r24
    22e0:	89 85       	ldd	r24, Y+9	; 0x09
    22e2:	4b 86       	std	Y+11, r4	; 0x0b
    22e4:	8b 7f       	andi	r24, 0xFB	; 251
    22e6:	89 87       	std	Y+9, r24	; 0x09
    22e8:	59 82       	std	Y+1, r5	; 0x01
    22ea:	9e 01       	movw	r18, r28
    22ec:	2f 5f       	subi	r18, 0xFF	; 255
    22ee:	3f 4f       	sbci	r19, 0xFF	; 255
    22f0:	ae 01       	movw	r20, r28
    22f2:	45 5f       	subi	r20, 0xF5	; 245
    22f4:	5f 4f       	sbci	r21, 0xFF	; 255
    22f6:	b6 01       	movw	r22, r12
    22f8:	8c e3       	ldi	r24, 0x3C	; 60
    22fa:	91 e0       	ldi	r25, 0x01	; 1
    22fc:	0e 94 4e 09 	call	0x129c	; 0x129c <_ZN3TWI5writeERKhS1_S1_PS0_>
    2300:	f7 01       	movw	r30, r14
    2302:	80 83       	st	Z, r24
    2304:	bd 86       	std	Y+13, r11	; 0x0d
    2306:	5c 86       	std	Y+12, r5	; 0x0c
    2308:	59 82       	std	Y+1, r5	; 0x01
    230a:	0d 5f       	subi	r16, 0xFD	; 253
    230c:	1f 4f       	sbci	r17, 0xFF	; 255
    230e:	9e 01       	movw	r18, r28
    2310:	2f 5f       	subi	r18, 0xFF	; 255
    2312:	3f 4f       	sbci	r19, 0xFF	; 255
    2314:	ae 01       	movw	r20, r28
    2316:	43 5f       	subi	r20, 0xF3	; 243
    2318:	5f 4f       	sbci	r21, 0xFF	; 255
    231a:	b6 01       	movw	r22, r12
    231c:	8c e3       	ldi	r24, 0x3C	; 60
    231e:	91 e0       	ldi	r25, 0x01	; 1
    2320:	0e 94 4e 09 	call	0x129c	; 0x129c <_ZN3TWI5writeERKhS1_S1_PS0_>
    2324:	f7 01       	movw	r30, r14
    2326:	80 83       	st	Z, r24
    2328:	1f 86       	std	Y+15, r1	; 0x0f
    232a:	5e 86       	std	Y+14, r5	; 0x0e
    232c:	59 82       	std	Y+1, r5	; 0x01
    232e:	0e 5f       	subi	r16, 0xFE	; 254
    2330:	1f 4f       	sbci	r17, 0xFF	; 255
    2332:	9e 01       	movw	r18, r28
    2334:	2f 5f       	subi	r18, 0xFF	; 255
    2336:	3f 4f       	sbci	r19, 0xFF	; 255
    2338:	ae 01       	movw	r20, r28
    233a:	41 5f       	subi	r20, 0xF1	; 241
    233c:	5f 4f       	sbci	r21, 0xFF	; 255
    233e:	b6 01       	movw	r22, r12
    2340:	8c e3       	ldi	r24, 0x3C	; 60
    2342:	91 e0       	ldi	r25, 0x01	; 1
    2344:	0e 94 4e 09 	call	0x129c	; 0x129c <_ZN3TWI5writeERKhS1_S1_PS0_>
    2348:	f7 01       	movw	r30, r14
    234a:	80 83       	st	Z, r24
    234c:	b9 8a       	std	Y+17, r11	; 0x11
    234e:	18 8a       	std	Y+16, r1	; 0x10
    2350:	59 82       	std	Y+1, r5	; 0x01
    2352:	0e 5f       	subi	r16, 0xFE	; 254
    2354:	1f 4f       	sbci	r17, 0xFF	; 255
    2356:	9e 01       	movw	r18, r28
    2358:	2f 5f       	subi	r18, 0xFF	; 255
    235a:	3f 4f       	sbci	r19, 0xFF	; 255
    235c:	ae 01       	movw	r20, r28
    235e:	4f 5e       	subi	r20, 0xEF	; 239
    2360:	5f 4f       	sbci	r21, 0xFF	; 255
    2362:	b6 01       	movw	r22, r12
    2364:	8c e3       	ldi	r24, 0x3C	; 60
    2366:	91 e0       	ldi	r25, 0x01	; 1
    2368:	0e 94 4e 09 	call	0x129c	; 0x129c <_ZN3TWI5writeERKhS1_S1_PS0_>
    236c:	f7 01       	movw	r30, r14
    236e:	80 83       	st	Z, r24
    2370:	80 e8       	ldi	r24, 0x80	; 128
    2372:	8b 8b       	std	Y+19, r24	; 0x13
    2374:	1a 8a       	std	Y+18, r1	; 0x12
    2376:	59 82       	std	Y+1, r5	; 0x01
    2378:	0e 5f       	subi	r16, 0xFE	; 254
    237a:	1f 4f       	sbci	r17, 0xFF	; 255
    237c:	9e 01       	movw	r18, r28
    237e:	2f 5f       	subi	r18, 0xFF	; 255
    2380:	3f 4f       	sbci	r19, 0xFF	; 255
    2382:	ae 01       	movw	r20, r28
    2384:	4d 5e       	subi	r20, 0xED	; 237
    2386:	5f 4f       	sbci	r21, 0xFF	; 255
    2388:	b6 01       	movw	r22, r12
    238a:	8c e3       	ldi	r24, 0x3C	; 60
    238c:	91 e0       	ldi	r25, 0x01	; 1
    238e:	0e 94 4e 09 	call	0x129c	; 0x129c <_ZN3TWI5writeERKhS1_S1_PS0_>
    2392:	f7 01       	movw	r30, r14
    2394:	80 83       	st	Z, r24
    2396:	81 e0       	ldi	r24, 0x01	; 1
    2398:	a9 96       	adiw	r28, 0x29	; 41
    239a:	0f b6       	in	r0, 0x3f	; 63
    239c:	f8 94       	cli
    239e:	de bf       	out	0x3e, r29	; 62
    23a0:	0f be       	out	0x3f, r0	; 63
    23a2:	cd bf       	out	0x3d, r28	; 61
    23a4:	df 91       	pop	r29
    23a6:	cf 91       	pop	r28
    23a8:	1f 91       	pop	r17
    23aa:	0f 91       	pop	r16
    23ac:	ff 90       	pop	r15
    23ae:	ef 90       	pop	r14
    23b0:	df 90       	pop	r13
    23b2:	cf 90       	pop	r12
    23b4:	bf 90       	pop	r11
    23b6:	af 90       	pop	r10
    23b8:	9f 90       	pop	r9
    23ba:	8f 90       	pop	r8
    23bc:	7f 90       	pop	r7
    23be:	6f 90       	pop	r6
    23c0:	5f 90       	pop	r5
    23c2:	4f 90       	pop	r4
    23c4:	08 95       	ret

000023c6 <_ZN7VL53L0X23getSequenceStepTimeoutsEPKNS_19SequenceStepEnablesEPNS_20SequenceStepTimeoutsE>:
    23c6:	2f 92       	push	r2
    23c8:	3f 92       	push	r3
    23ca:	4f 92       	push	r4
    23cc:	5f 92       	push	r5
    23ce:	6f 92       	push	r6
    23d0:	7f 92       	push	r7
    23d2:	8f 92       	push	r8
    23d4:	9f 92       	push	r9
    23d6:	af 92       	push	r10
    23d8:	bf 92       	push	r11
    23da:	cf 92       	push	r12
    23dc:	df 92       	push	r13
    23de:	ef 92       	push	r14
    23e0:	ff 92       	push	r15
    23e2:	0f 93       	push	r16
    23e4:	1f 93       	push	r17
    23e6:	cf 93       	push	r28
    23e8:	df 93       	push	r29
    23ea:	cd b7       	in	r28, 0x3d	; 61
    23ec:	de b7       	in	r29, 0x3e	; 62
    23ee:	62 97       	sbiw	r28, 0x12	; 18
    23f0:	0f b6       	in	r0, 0x3f	; 63
    23f2:	f8 94       	cli
    23f4:	de bf       	out	0x3e, r29	; 62
    23f6:	0f be       	out	0x3f, r0	; 63
    23f8:	cd bf       	out	0x3d, r28	; 61
    23fa:	9a 87       	std	Y+10, r25	; 0x0a
    23fc:	89 87       	std	Y+9, r24	; 0x09
    23fe:	7a 8b       	std	Y+18, r23	; 0x12
    2400:	69 8b       	std	Y+17, r22	; 0x11
    2402:	1a 01       	movw	r2, r20
    2404:	80 e5       	ldi	r24, 0x50	; 80
    2406:	8c 83       	std	Y+4, r24	; 0x04
    2408:	21 e0       	ldi	r18, 0x01	; 1
    240a:	29 83       	std	Y+1, r18	; 0x01
    240c:	89 85       	ldd	r24, Y+9	; 0x09
    240e:	9a 85       	ldd	r25, Y+10	; 0x0a
    2410:	01 96       	adiw	r24, 0x01	; 1
    2412:	9c 87       	std	Y+12, r25	; 0x0c
    2414:	8b 87       	std	Y+11, r24	; 0x0b
    2416:	8e 01       	movw	r16, r28
    2418:	0d 5f       	subi	r16, 0xFD	; 253
    241a:	1f 4f       	sbci	r17, 0xFF	; 255
    241c:	9e 01       	movw	r18, r28
    241e:	2f 5f       	subi	r18, 0xFF	; 255
    2420:	3f 4f       	sbci	r19, 0xFF	; 255
    2422:	ae 01       	movw	r20, r28
    2424:	4c 5f       	subi	r20, 0xFC	; 252
    2426:	5f 4f       	sbci	r21, 0xFF	; 255
    2428:	bc 01       	movw	r22, r24
    242a:	8c e3       	ldi	r24, 0x3C	; 60
    242c:	91 e0       	ldi	r25, 0x01	; 1
    242e:	0e 94 93 09 	call	0x1326	; 0x1326 <_ZN3TWI4readERKhS1_S1_Ph>
    2432:	e9 85       	ldd	r30, Y+9	; 0x09
    2434:	fa 85       	ldd	r31, Y+10	; 0x0a
    2436:	80 83       	st	Z, r24
    2438:	8b 81       	ldd	r24, Y+3	; 0x03
    243a:	8f 5f       	subi	r24, 0xFF	; 255
    243c:	88 0f       	add	r24, r24
    243e:	90 e0       	ldi	r25, 0x00	; 0
    2440:	f1 01       	movw	r30, r2
    2442:	91 83       	std	Z+1, r25	; 0x01
    2444:	80 83       	st	Z, r24
    2446:	86 e4       	ldi	r24, 0x46	; 70
    2448:	88 87       	std	Y+8, r24	; 0x08
    244a:	f1 e0       	ldi	r31, 0x01	; 1
    244c:	f9 83       	std	Y+1, r31	; 0x01
    244e:	9e 01       	movw	r18, r28
    2450:	2f 5f       	subi	r18, 0xFF	; 255
    2452:	3f 4f       	sbci	r19, 0xFF	; 255
    2454:	ae 01       	movw	r20, r28
    2456:	48 5f       	subi	r20, 0xF8	; 248
    2458:	5f 4f       	sbci	r21, 0xFF	; 255
    245a:	6b 85       	ldd	r22, Y+11	; 0x0b
    245c:	7c 85       	ldd	r23, Y+12	; 0x0c
    245e:	8c e3       	ldi	r24, 0x3C	; 60
    2460:	91 e0       	ldi	r25, 0x01	; 1
    2462:	0e 94 93 09 	call	0x1326	; 0x1326 <_ZN3TWI4readERKhS1_S1_Ph>
    2466:	e9 85       	ldd	r30, Y+9	; 0x09
    2468:	fa 85       	ldd	r31, Y+10	; 0x0a
    246a:	80 83       	st	Z, r24
    246c:	0b 81       	ldd	r16, Y+3	; 0x03
    246e:	10 e0       	ldi	r17, 0x00	; 0
    2470:	0f 5f       	subi	r16, 0xFF	; 255
    2472:	1f 4f       	sbci	r17, 0xFF	; 255
    2474:	f1 01       	movw	r30, r2
    2476:	15 83       	std	Z+5, r17	; 0x05
    2478:	04 83       	std	Z+4, r16	; 0x04
    247a:	a0 81       	ld	r26, Z
    247c:	b0 e0       	ldi	r27, 0x00	; 0
    247e:	20 e0       	ldi	r18, 0x00	; 0
    2480:	3f e2       	ldi	r19, 0x2F	; 47
    2482:	4a e3       	ldi	r20, 0x3A	; 58
    2484:	50 e0       	ldi	r21, 0x00	; 0
    2486:	0e 94 6e 24 	call	0x48dc	; 0x48dc <__muluhisi3>
    248a:	4b 01       	movw	r8, r22
    248c:	5c 01       	movw	r10, r24
    248e:	f4 ef       	ldi	r31, 0xF4	; 244
    2490:	8f 0e       	add	r8, r31
    2492:	f1 e0       	ldi	r31, 0x01	; 1
    2494:	9f 1e       	adc	r9, r31
    2496:	a1 1c       	adc	r10, r1
    2498:	b1 1c       	adc	r11, r1
    249a:	98 ee       	ldi	r25, 0xE8	; 232
    249c:	c9 2e       	mov	r12, r25
    249e:	93 e0       	ldi	r25, 0x03	; 3
    24a0:	d9 2e       	mov	r13, r25
    24a2:	e1 2c       	mov	r14, r1
    24a4:	f1 2c       	mov	r15, r1
    24a6:	c5 01       	movw	r24, r10
    24a8:	b4 01       	movw	r22, r8
    24aa:	a7 01       	movw	r20, r14
    24ac:	96 01       	movw	r18, r12
    24ae:	0e 94 46 24 	call	0x488c	; 0x488c <__udivmodsi4>
    24b2:	d8 01       	movw	r26, r16
    24b4:	0e 94 79 24 	call	0x48f2	; 0x48f2 <__mulshisi3>
    24b8:	6d 87       	std	Y+13, r22	; 0x0d
    24ba:	7e 87       	std	Y+14, r23	; 0x0e
    24bc:	8f 87       	std	Y+15, r24	; 0x0f
    24be:	98 8b       	std	Y+16, r25	; 0x10
    24c0:	20 ed       	ldi	r18, 0xD0	; 208
    24c2:	42 2e       	mov	r4, r18
    24c4:	27 e0       	ldi	r18, 0x07	; 7
    24c6:	52 2e       	mov	r5, r18
    24c8:	61 2c       	mov	r6, r1
    24ca:	71 2c       	mov	r7, r1
    24cc:	c5 01       	movw	r24, r10
    24ce:	b4 01       	movw	r22, r8
    24d0:	a3 01       	movw	r20, r6
    24d2:	92 01       	movw	r18, r4
    24d4:	0e 94 46 24 	call	0x488c	; 0x488c <__udivmodsi4>
    24d8:	6d 85       	ldd	r22, Y+13	; 0x0d
    24da:	7e 85       	ldd	r23, Y+14	; 0x0e
    24dc:	8f 85       	ldd	r24, Y+15	; 0x0f
    24de:	98 89       	ldd	r25, Y+16	; 0x10
    24e0:	62 0f       	add	r22, r18
    24e2:	73 1f       	adc	r23, r19
    24e4:	84 1f       	adc	r24, r20
    24e6:	95 1f       	adc	r25, r21
    24e8:	a7 01       	movw	r20, r14
    24ea:	96 01       	movw	r18, r12
    24ec:	0e 94 46 24 	call	0x488c	; 0x488c <__udivmodsi4>
    24f0:	f1 01       	movw	r30, r2
    24f2:	22 87       	std	Z+10, r18	; 0x0a
    24f4:	33 87       	std	Z+11, r19	; 0x0b
    24f6:	44 87       	std	Z+12, r20	; 0x0c
    24f8:	55 87       	std	Z+13, r21	; 0x0d
    24fa:	81 e5       	ldi	r24, 0x51	; 81
    24fc:	8d 83       	std	Y+5, r24	; 0x05
    24fe:	f2 e0       	ldi	r31, 0x02	; 2
    2500:	fb 83       	std	Y+3, r31	; 0x03
    2502:	8e 01       	movw	r16, r28
    2504:	0f 5f       	subi	r16, 0xFF	; 255
    2506:	1f 4f       	sbci	r17, 0xFF	; 255
    2508:	9e 01       	movw	r18, r28
    250a:	2d 5f       	subi	r18, 0xFD	; 253
    250c:	3f 4f       	sbci	r19, 0xFF	; 255
    250e:	ae 01       	movw	r20, r28
    2510:	4b 5f       	subi	r20, 0xFB	; 251
    2512:	5f 4f       	sbci	r21, 0xFF	; 255
    2514:	6b 85       	ldd	r22, Y+11	; 0x0b
    2516:	7c 85       	ldd	r23, Y+12	; 0x0c
    2518:	8c e3       	ldi	r24, 0x3C	; 60
    251a:	91 e0       	ldi	r25, 0x01	; 1
    251c:	0e 94 93 09 	call	0x1326	; 0x1326 <_ZN3TWI4readERKhS1_S1_Ph>
    2520:	e9 85       	ldd	r30, Y+9	; 0x09
    2522:	fa 85       	ldd	r31, Y+10	; 0x0a
    2524:	80 83       	st	Z, r24
    2526:	89 81       	ldd	r24, Y+1	; 0x01
    2528:	9a 81       	ldd	r25, Y+2	; 0x02
    252a:	98 27       	eor	r25, r24
    252c:	89 27       	eor	r24, r25
    252e:	98 27       	eor	r25, r24
    2530:	8c 01       	movw	r16, r24
    2532:	11 27       	eor	r17, r17
    2534:	02 c0       	rjmp	.+4      	; 0x253a <_ZN7VL53L0X23getSequenceStepTimeoutsEPKNS_19SequenceStepEnablesEPNS_20SequenceStepTimeoutsE+0x174>
    2536:	00 0f       	add	r16, r16
    2538:	11 1f       	adc	r17, r17
    253a:	9a 95       	dec	r25
    253c:	e2 f7       	brpl	.-8      	; 0x2536 <_ZN7VL53L0X23getSequenceStepTimeoutsEPKNS_19SequenceStepEnablesEPNS_20SequenceStepTimeoutsE+0x170>
    253e:	0f 5f       	subi	r16, 0xFF	; 255
    2540:	1f 4f       	sbci	r17, 0xFF	; 255
    2542:	f1 01       	movw	r30, r2
    2544:	17 83       	std	Z+7, r17	; 0x07
    2546:	06 83       	std	Z+6, r16	; 0x06
    2548:	a0 81       	ld	r26, Z
    254a:	b0 e0       	ldi	r27, 0x00	; 0
    254c:	20 e0       	ldi	r18, 0x00	; 0
    254e:	3f e2       	ldi	r19, 0x2F	; 47
    2550:	4a e3       	ldi	r20, 0x3A	; 58
    2552:	50 e0       	ldi	r21, 0x00	; 0
    2554:	0e 94 6e 24 	call	0x48dc	; 0x48dc <__muluhisi3>
    2558:	4b 01       	movw	r8, r22
    255a:	5c 01       	movw	r10, r24
    255c:	f4 ef       	ldi	r31, 0xF4	; 244
    255e:	8f 0e       	add	r8, r31
    2560:	f1 e0       	ldi	r31, 0x01	; 1
    2562:	9f 1e       	adc	r9, r31
    2564:	a1 1c       	adc	r10, r1
    2566:	b1 1c       	adc	r11, r1
    2568:	c5 01       	movw	r24, r10
    256a:	b4 01       	movw	r22, r8
    256c:	a7 01       	movw	r20, r14
    256e:	96 01       	movw	r18, r12
    2570:	0e 94 46 24 	call	0x488c	; 0x488c <__udivmodsi4>
    2574:	d8 01       	movw	r26, r16
    2576:	0e 94 6e 24 	call	0x48dc	; 0x48dc <__muluhisi3>
    257a:	6d 87       	std	Y+13, r22	; 0x0d
    257c:	7e 87       	std	Y+14, r23	; 0x0e
    257e:	8f 87       	std	Y+15, r24	; 0x0f
    2580:	98 8b       	std	Y+16, r25	; 0x10
    2582:	c5 01       	movw	r24, r10
    2584:	b4 01       	movw	r22, r8
    2586:	a3 01       	movw	r20, r6
    2588:	92 01       	movw	r18, r4
    258a:	0e 94 46 24 	call	0x488c	; 0x488c <__udivmodsi4>
    258e:	6d 85       	ldd	r22, Y+13	; 0x0d
    2590:	7e 85       	ldd	r23, Y+14	; 0x0e
    2592:	8f 85       	ldd	r24, Y+15	; 0x0f
    2594:	98 89       	ldd	r25, Y+16	; 0x10
    2596:	62 0f       	add	r22, r18
    2598:	73 1f       	adc	r23, r19
    259a:	84 1f       	adc	r24, r20
    259c:	95 1f       	adc	r25, r21
    259e:	a7 01       	movw	r20, r14
    25a0:	96 01       	movw	r18, r12
    25a2:	0e 94 46 24 	call	0x488c	; 0x488c <__udivmodsi4>
    25a6:	f1 01       	movw	r30, r2
    25a8:	26 87       	std	Z+14, r18	; 0x0e
    25aa:	37 87       	std	Z+15, r19	; 0x0f
    25ac:	40 8b       	std	Z+16, r20	; 0x10
    25ae:	51 8b       	std	Z+17, r21	; 0x11
    25b0:	80 e7       	ldi	r24, 0x70	; 112
    25b2:	8e 83       	std	Y+6, r24	; 0x06
    25b4:	f1 e0       	ldi	r31, 0x01	; 1
    25b6:	f9 83       	std	Y+1, r31	; 0x01
    25b8:	8e 01       	movw	r16, r28
    25ba:	0d 5f       	subi	r16, 0xFD	; 253
    25bc:	1f 4f       	sbci	r17, 0xFF	; 255
    25be:	9e 01       	movw	r18, r28
    25c0:	2f 5f       	subi	r18, 0xFF	; 255
    25c2:	3f 4f       	sbci	r19, 0xFF	; 255
    25c4:	ae 01       	movw	r20, r28
    25c6:	4a 5f       	subi	r20, 0xFA	; 250
    25c8:	5f 4f       	sbci	r21, 0xFF	; 255
    25ca:	6b 85       	ldd	r22, Y+11	; 0x0b
    25cc:	7c 85       	ldd	r23, Y+12	; 0x0c
    25ce:	8c e3       	ldi	r24, 0x3C	; 60
    25d0:	91 e0       	ldi	r25, 0x01	; 1
    25d2:	0e 94 93 09 	call	0x1326	; 0x1326 <_ZN3TWI4readERKhS1_S1_Ph>
    25d6:	e9 85       	ldd	r30, Y+9	; 0x09
    25d8:	fa 85       	ldd	r31, Y+10	; 0x0a
    25da:	80 83       	st	Z, r24
    25dc:	8b 81       	ldd	r24, Y+3	; 0x03
    25de:	8f 5f       	subi	r24, 0xFF	; 255
    25e0:	88 0f       	add	r24, r24
    25e2:	90 e0       	ldi	r25, 0x00	; 0
    25e4:	f1 01       	movw	r30, r2
    25e6:	93 83       	std	Z+3, r25	; 0x03
    25e8:	82 83       	std	Z+2, r24	; 0x02
    25ea:	81 e7       	ldi	r24, 0x71	; 113
    25ec:	8f 83       	std	Y+7, r24	; 0x07
    25ee:	f2 e0       	ldi	r31, 0x02	; 2
    25f0:	fb 83       	std	Y+3, r31	; 0x03
    25f2:	02 50       	subi	r16, 0x02	; 2
    25f4:	11 09       	sbc	r17, r1
    25f6:	9e 01       	movw	r18, r28
    25f8:	2d 5f       	subi	r18, 0xFD	; 253
    25fa:	3f 4f       	sbci	r19, 0xFF	; 255
    25fc:	ae 01       	movw	r20, r28
    25fe:	49 5f       	subi	r20, 0xF9	; 249
    2600:	5f 4f       	sbci	r21, 0xFF	; 255
    2602:	6b 85       	ldd	r22, Y+11	; 0x0b
    2604:	7c 85       	ldd	r23, Y+12	; 0x0c
    2606:	8c e3       	ldi	r24, 0x3C	; 60
    2608:	91 e0       	ldi	r25, 0x01	; 1
    260a:	0e 94 93 09 	call	0x1326	; 0x1326 <_ZN3TWI4readERKhS1_S1_Ph>
    260e:	e9 85       	ldd	r30, Y+9	; 0x09
    2610:	fa 85       	ldd	r31, Y+10	; 0x0a
    2612:	80 83       	st	Z, r24
    2614:	89 81       	ldd	r24, Y+1	; 0x01
    2616:	9a 81       	ldd	r25, Y+2	; 0x02
    2618:	98 27       	eor	r25, r24
    261a:	89 27       	eor	r24, r25
    261c:	98 27       	eor	r25, r24
    261e:	8c 01       	movw	r16, r24
    2620:	11 27       	eor	r17, r17
    2622:	02 c0       	rjmp	.+4      	; 0x2628 <_ZN7VL53L0X23getSequenceStepTimeoutsEPKNS_19SequenceStepEnablesEPNS_20SequenceStepTimeoutsE+0x262>
    2624:	00 0f       	add	r16, r16
    2626:	11 1f       	adc	r17, r17
    2628:	9a 95       	dec	r25
    262a:	e2 f7       	brpl	.-8      	; 0x2624 <_ZN7VL53L0X23getSequenceStepTimeoutsEPKNS_19SequenceStepEnablesEPNS_20SequenceStepTimeoutsE+0x25e>
    262c:	0f 5f       	subi	r16, 0xFF	; 255
    262e:	1f 4f       	sbci	r17, 0xFF	; 255
    2630:	f1 01       	movw	r30, r2
    2632:	11 87       	std	Z+9, r17	; 0x09
    2634:	00 87       	std	Z+8, r16	; 0x08
    2636:	e9 89       	ldd	r30, Y+17	; 0x11
    2638:	fa 89       	ldd	r31, Y+18	; 0x12
    263a:	83 81       	ldd	r24, Z+3	; 0x03
    263c:	88 23       	and	r24, r24
    263e:	39 f0       	breq	.+14     	; 0x264e <_ZN7VL53L0X23getSequenceStepTimeoutsEPKNS_19SequenceStepEnablesEPNS_20SequenceStepTimeoutsE+0x288>
    2640:	f1 01       	movw	r30, r2
    2642:	86 81       	ldd	r24, Z+6	; 0x06
    2644:	97 81       	ldd	r25, Z+7	; 0x07
    2646:	08 1b       	sub	r16, r24
    2648:	19 0b       	sbc	r17, r25
    264a:	11 87       	std	Z+9, r17	; 0x09
    264c:	00 87       	std	Z+8, r16	; 0x08
    264e:	f1 01       	movw	r30, r2
    2650:	a2 81       	ldd	r26, Z+2	; 0x02
    2652:	b0 e0       	ldi	r27, 0x00	; 0
    2654:	20 e0       	ldi	r18, 0x00	; 0
    2656:	3f e2       	ldi	r19, 0x2F	; 47
    2658:	4a e3       	ldi	r20, 0x3A	; 58
    265a:	50 e0       	ldi	r21, 0x00	; 0
    265c:	0e 94 6e 24 	call	0x48dc	; 0x48dc <__muluhisi3>
    2660:	6b 01       	movw	r12, r22
    2662:	7c 01       	movw	r14, r24
    2664:	f4 ef       	ldi	r31, 0xF4	; 244
    2666:	cf 0e       	add	r12, r31
    2668:	f1 e0       	ldi	r31, 0x01	; 1
    266a:	df 1e       	adc	r13, r31
    266c:	e1 1c       	adc	r14, r1
    266e:	f1 1c       	adc	r15, r1
    2670:	88 ee       	ldi	r24, 0xE8	; 232
    2672:	88 2e       	mov	r8, r24
    2674:	83 e0       	ldi	r24, 0x03	; 3
    2676:	98 2e       	mov	r9, r24
    2678:	a1 2c       	mov	r10, r1
    267a:	b1 2c       	mov	r11, r1
    267c:	c7 01       	movw	r24, r14
    267e:	b6 01       	movw	r22, r12
    2680:	a5 01       	movw	r20, r10
    2682:	94 01       	movw	r18, r8
    2684:	0e 94 46 24 	call	0x488c	; 0x488c <__udivmodsi4>
    2688:	d8 01       	movw	r26, r16
    268a:	0e 94 6e 24 	call	0x48dc	; 0x48dc <__muluhisi3>
    268e:	2b 01       	movw	r4, r22
    2690:	3c 01       	movw	r6, r24
    2692:	c7 01       	movw	r24, r14
    2694:	b6 01       	movw	r22, r12
    2696:	20 ed       	ldi	r18, 0xD0	; 208
    2698:	37 e0       	ldi	r19, 0x07	; 7
    269a:	40 e0       	ldi	r20, 0x00	; 0
    269c:	50 e0       	ldi	r21, 0x00	; 0
    269e:	0e 94 46 24 	call	0x488c	; 0x488c <__udivmodsi4>
    26a2:	c3 01       	movw	r24, r6
    26a4:	b2 01       	movw	r22, r4
    26a6:	62 0f       	add	r22, r18
    26a8:	73 1f       	adc	r23, r19
    26aa:	84 1f       	adc	r24, r20
    26ac:	95 1f       	adc	r25, r21
    26ae:	a5 01       	movw	r20, r10
    26b0:	94 01       	movw	r18, r8
    26b2:	0e 94 46 24 	call	0x488c	; 0x488c <__udivmodsi4>
    26b6:	f1 01       	movw	r30, r2
    26b8:	22 8b       	std	Z+18, r18	; 0x12
    26ba:	33 8b       	std	Z+19, r19	; 0x13
    26bc:	44 8b       	std	Z+20, r20	; 0x14
    26be:	55 8b       	std	Z+21, r21	; 0x15
    26c0:	62 96       	adiw	r28, 0x12	; 18
    26c2:	0f b6       	in	r0, 0x3f	; 63
    26c4:	f8 94       	cli
    26c6:	de bf       	out	0x3e, r29	; 62
    26c8:	0f be       	out	0x3f, r0	; 63
    26ca:	cd bf       	out	0x3d, r28	; 61
    26cc:	df 91       	pop	r29
    26ce:	cf 91       	pop	r28
    26d0:	1f 91       	pop	r17
    26d2:	0f 91       	pop	r16
    26d4:	ff 90       	pop	r15
    26d6:	ef 90       	pop	r14
    26d8:	df 90       	pop	r13
    26da:	cf 90       	pop	r12
    26dc:	bf 90       	pop	r11
    26de:	af 90       	pop	r10
    26e0:	9f 90       	pop	r9
    26e2:	8f 90       	pop	r8
    26e4:	7f 90       	pop	r7
    26e6:	6f 90       	pop	r6
    26e8:	5f 90       	pop	r5
    26ea:	4f 90       	pop	r4
    26ec:	3f 90       	pop	r3
    26ee:	2f 90       	pop	r2
    26f0:	08 95       	ret

000026f2 <_ZN7VL53L0X27performSingleRefCalibrationEh>:
    26f2:	9f 92       	push	r9
    26f4:	af 92       	push	r10
    26f6:	bf 92       	push	r11
    26f8:	cf 92       	push	r12
    26fa:	df 92       	push	r13
    26fc:	ef 92       	push	r14
    26fe:	ff 92       	push	r15
    2700:	0f 93       	push	r16
    2702:	1f 93       	push	r17
    2704:	cf 93       	push	r28
    2706:	df 93       	push	r29
    2708:	cd b7       	in	r28, 0x3d	; 61
    270a:	de b7       	in	r29, 0x3e	; 62
    270c:	28 97       	sbiw	r28, 0x08	; 8
    270e:	0f b6       	in	r0, 0x3f	; 63
    2710:	f8 94       	cli
    2712:	de bf       	out	0x3e, r29	; 62
    2714:	0f be       	out	0x3f, r0	; 63
    2716:	cd bf       	out	0x3d, r28	; 61
    2718:	7c 01       	movw	r14, r24
    271a:	18 86       	std	Y+8, r1	; 0x08
    271c:	61 60       	ori	r22, 0x01	; 1
    271e:	6f 83       	std	Y+7, r22	; 0x07
    2720:	81 e0       	ldi	r24, 0x01	; 1
    2722:	89 83       	std	Y+1, r24	; 0x01
    2724:	67 01       	movw	r12, r14
    2726:	8f ef       	ldi	r24, 0xFF	; 255
    2728:	c8 1a       	sub	r12, r24
    272a:	d8 0a       	sbc	r13, r24
    272c:	8e 01       	movw	r16, r28
    272e:	09 5f       	subi	r16, 0xF9	; 249
    2730:	1f 4f       	sbci	r17, 0xFF	; 255
    2732:	9e 01       	movw	r18, r28
    2734:	2f 5f       	subi	r18, 0xFF	; 255
    2736:	3f 4f       	sbci	r19, 0xFF	; 255
    2738:	ae 01       	movw	r20, r28
    273a:	48 5f       	subi	r20, 0xF8	; 248
    273c:	5f 4f       	sbci	r21, 0xFF	; 255
    273e:	b6 01       	movw	r22, r12
    2740:	8c e3       	ldi	r24, 0x3C	; 60
    2742:	91 e0       	ldi	r25, 0x01	; 1
    2744:	0e 94 4e 09 	call	0x129c	; 0x129c <_ZN3TWI5writeERKhS1_S1_PS0_>
    2748:	f7 01       	movw	r30, r14
    274a:	80 83       	st	Z, r24
    274c:	42 e0       	ldi	r20, 0x02	; 2
    274e:	50 e0       	ldi	r21, 0x00	; 0
    2750:	60 e0       	ldi	r22, 0x00	; 0
    2752:	70 e0       	ldi	r23, 0x00	; 0
    2754:	88 e8       	ldi	r24, 0x88	; 136
    2756:	91 e0       	ldi	r25, 0x01	; 1
    2758:	0e 94 ff 08 	call	0x11fe	; 0x11fe <_ZN4Time5delayEm>
    275c:	80 91 88 01 	lds	r24, 0x0188	; 0x800188 <TIME>
    2760:	90 91 89 01 	lds	r25, 0x0189	; 0x800189 <TIME+0x1>
    2764:	a0 91 8a 01 	lds	r26, 0x018A	; 0x80018a <TIME+0x2>
    2768:	b0 91 8b 01 	lds	r27, 0x018B	; 0x80018b <TIME+0x3>
    276c:	f7 01       	movw	r30, r14
    276e:	96 83       	std	Z+6, r25	; 0x06
    2770:	85 83       	std	Z+5, r24	; 0x05
    2772:	83 e1       	ldi	r24, 0x13	; 19
    2774:	a8 2e       	mov	r10, r24
    2776:	bb 24       	eor	r11, r11
    2778:	b3 94       	inc	r11
    277a:	ae 82       	std	Y+6, r10	; 0x06
    277c:	99 24       	eor	r9, r9
    277e:	93 94       	inc	r9
    2780:	b9 82       	std	Y+1, r11	; 0x01
    2782:	8e 01       	movw	r16, r28
    2784:	0e 5f       	subi	r16, 0xFE	; 254
    2786:	1f 4f       	sbci	r17, 0xFF	; 255
    2788:	9e 01       	movw	r18, r28
    278a:	2f 5f       	subi	r18, 0xFF	; 255
    278c:	3f 4f       	sbci	r19, 0xFF	; 255
    278e:	ae 01       	movw	r20, r28
    2790:	4a 5f       	subi	r20, 0xFA	; 250
    2792:	5f 4f       	sbci	r21, 0xFF	; 255
    2794:	b6 01       	movw	r22, r12
    2796:	8c e3       	ldi	r24, 0x3C	; 60
    2798:	91 e0       	ldi	r25, 0x01	; 1
    279a:	0e 94 93 09 	call	0x1326	; 0x1326 <_ZN3TWI4readERKhS1_S1_Ph>
    279e:	f7 01       	movw	r30, r14
    27a0:	80 83       	st	Z, r24
    27a2:	8a 81       	ldd	r24, Y+2	; 0x02
    27a4:	87 70       	andi	r24, 0x07	; 7
    27a6:	a9 f4       	brne	.+42     	; 0x27d2 <_ZN7VL53L0X27performSingleRefCalibrationEh+0xe0>
    27a8:	82 81       	ldd	r24, Z+2	; 0x02
    27aa:	93 81       	ldd	r25, Z+3	; 0x03
    27ac:	00 97       	sbiw	r24, 0x00	; 0
    27ae:	29 f3       	breq	.-54     	; 0x277a <_ZN7VL53L0X27performSingleRefCalibrationEh+0x88>
    27b0:	40 91 88 01 	lds	r20, 0x0188	; 0x800188 <TIME>
    27b4:	50 91 89 01 	lds	r21, 0x0189	; 0x800189 <TIME+0x1>
    27b8:	60 91 8a 01 	lds	r22, 0x018A	; 0x80018a <TIME+0x2>
    27bc:	70 91 8b 01 	lds	r23, 0x018B	; 0x80018b <TIME+0x3>
    27c0:	25 81       	ldd	r18, Z+5	; 0x05
    27c2:	36 81       	ldd	r19, Z+6	; 0x06
    27c4:	42 1b       	sub	r20, r18
    27c6:	53 0b       	sbc	r21, r19
    27c8:	84 17       	cp	r24, r20
    27ca:	95 07       	cpc	r25, r21
    27cc:	b0 f6       	brcc	.-84     	; 0x277a <_ZN7VL53L0X27performSingleRefCalibrationEh+0x88>
    27ce:	80 e0       	ldi	r24, 0x00	; 0
    27d0:	27 c0       	rjmp	.+78     	; 0x2820 <_ZN7VL53L0X27performSingleRefCalibrationEh+0x12e>
    27d2:	8b e0       	ldi	r24, 0x0B	; 11
    27d4:	8b 83       	std	Y+3, r24	; 0x03
    27d6:	9a 82       	std	Y+2, r9	; 0x02
    27d8:	99 82       	std	Y+1, r9	; 0x01
    27da:	8e 01       	movw	r16, r28
    27dc:	0e 5f       	subi	r16, 0xFE	; 254
    27de:	1f 4f       	sbci	r17, 0xFF	; 255
    27e0:	9e 01       	movw	r18, r28
    27e2:	2f 5f       	subi	r18, 0xFF	; 255
    27e4:	3f 4f       	sbci	r19, 0xFF	; 255
    27e6:	ae 01       	movw	r20, r28
    27e8:	4d 5f       	subi	r20, 0xFD	; 253
    27ea:	5f 4f       	sbci	r21, 0xFF	; 255
    27ec:	b6 01       	movw	r22, r12
    27ee:	8c e3       	ldi	r24, 0x3C	; 60
    27f0:	91 e0       	ldi	r25, 0x01	; 1
    27f2:	0e 94 4e 09 	call	0x129c	; 0x129c <_ZN3TWI5writeERKhS1_S1_PS0_>
    27f6:	f7 01       	movw	r30, r14
    27f8:	80 83       	st	Z, r24
    27fa:	1d 82       	std	Y+5, r1	; 0x05
    27fc:	1c 82       	std	Y+4, r1	; 0x04
    27fe:	99 82       	std	Y+1, r9	; 0x01
    2800:	0e 5f       	subi	r16, 0xFE	; 254
    2802:	1f 4f       	sbci	r17, 0xFF	; 255
    2804:	9e 01       	movw	r18, r28
    2806:	2f 5f       	subi	r18, 0xFF	; 255
    2808:	3f 4f       	sbci	r19, 0xFF	; 255
    280a:	ae 01       	movw	r20, r28
    280c:	4b 5f       	subi	r20, 0xFB	; 251
    280e:	5f 4f       	sbci	r21, 0xFF	; 255
    2810:	b6 01       	movw	r22, r12
    2812:	8c e3       	ldi	r24, 0x3C	; 60
    2814:	91 e0       	ldi	r25, 0x01	; 1
    2816:	0e 94 4e 09 	call	0x129c	; 0x129c <_ZN3TWI5writeERKhS1_S1_PS0_>
    281a:	f7 01       	movw	r30, r14
    281c:	80 83       	st	Z, r24
    281e:	81 e0       	ldi	r24, 0x01	; 1
    2820:	28 96       	adiw	r28, 0x08	; 8
    2822:	0f b6       	in	r0, 0x3f	; 63
    2824:	f8 94       	cli
    2826:	de bf       	out	0x3e, r29	; 62
    2828:	0f be       	out	0x3f, r0	; 63
    282a:	cd bf       	out	0x3d, r28	; 61
    282c:	df 91       	pop	r29
    282e:	cf 91       	pop	r28
    2830:	1f 91       	pop	r17
    2832:	0f 91       	pop	r16
    2834:	ff 90       	pop	r15
    2836:	ef 90       	pop	r14
    2838:	df 90       	pop	r13
    283a:	cf 90       	pop	r12
    283c:	bf 90       	pop	r11
    283e:	af 90       	pop	r10
    2840:	9f 90       	pop	r9
    2842:	08 95       	ret

00002844 <_ZN7VL53L0X4initEb>:
    2844:	2f 92       	push	r2
    2846:	3f 92       	push	r3
    2848:	4f 92       	push	r4
    284a:	5f 92       	push	r5
    284c:	6f 92       	push	r6
    284e:	7f 92       	push	r7
    2850:	8f 92       	push	r8
    2852:	9f 92       	push	r9
    2854:	af 92       	push	r10
    2856:	bf 92       	push	r11
    2858:	cf 92       	push	r12
    285a:	df 92       	push	r13
    285c:	ef 92       	push	r14
    285e:	ff 92       	push	r15
    2860:	0f 93       	push	r16
    2862:	1f 93       	push	r17
    2864:	cf 93       	push	r28
    2866:	df 93       	push	r29
    2868:	cd b7       	in	r28, 0x3d	; 61
    286a:	de b7       	in	r29, 0x3e	; 62
    286c:	c0 5e       	subi	r28, 0xE0	; 224
    286e:	d1 09       	sbc	r29, r1
    2870:	0f b6       	in	r0, 0x3f	; 63
    2872:	f8 94       	cli
    2874:	de bf       	out	0x3e, r29	; 62
    2876:	0f be       	out	0x3f, r0	; 63
    2878:	cd bf       	out	0x3d, r28	; 61
    287a:	6c 01       	movw	r12, r24
    287c:	f6 2e       	mov	r15, r22
    287e:	5c 01       	movw	r10, r24
    2880:	8f ef       	ldi	r24, 0xFF	; 255
    2882:	a8 1a       	sub	r10, r24
    2884:	b8 0a       	sbc	r11, r24
    2886:	b5 01       	movw	r22, r10
    2888:	8c e3       	ldi	r24, 0x3C	; 60
    288a:	91 e0       	ldi	r25, 0x01	; 1
    288c:	0e 94 f1 09 	call	0x13e2	; 0x13e2 <_ZN3TWI4pingERKh>
    2890:	88 23       	and	r24, r24
    2892:	09 f4       	brne	.+2      	; 0x2896 <_ZN7VL53L0X4initEb+0x52>
    2894:	50 c1       	rjmp	.+672    	; 0x2b36 <_ZN7VL53L0X4initEb+0x2f2>
    2896:	f1 10       	cpse	r15, r1
    2898:	50 c1       	rjmp	.+672    	; 0x2b3a <_ZN7VL53L0X4initEb+0x2f6>
    289a:	fe 01       	movw	r30, r28
    289c:	37 96       	adiw	r30, 0x07	; 7
    289e:	3f 01       	movw	r6, r30
    28a0:	ce 01       	movw	r24, r28
    28a2:	01 96       	adiw	r24, 0x01	; 1
    28a4:	4c 01       	movw	r8, r24
    28a6:	88 e8       	ldi	r24, 0x88	; 136
    28a8:	c7 53       	subi	r28, 0x37	; 55
    28aa:	df 4f       	sbci	r29, 0xFF	; 255
    28ac:	88 83       	st	Y, r24
    28ae:	c9 5c       	subi	r28, 0xC9	; 201
    28b0:	d0 40       	sbci	r29, 0x00	; 0
    28b2:	c8 53       	subi	r28, 0x38	; 56
    28b4:	df 4f       	sbci	r29, 0xFF	; 255
    28b6:	18 82       	st	Y, r1
    28b8:	c8 5c       	subi	r28, 0xC8	; 200
    28ba:	d0 40       	sbci	r29, 0x00	; 0
    28bc:	ff 24       	eor	r15, r15
    28be:	f3 94       	inc	r15
    28c0:	f9 82       	std	Y+1, r15	; 0x01
    28c2:	8e 01       	movw	r16, r28
    28c4:	08 53       	subi	r16, 0x38	; 56
    28c6:	1f 4f       	sbci	r17, 0xFF	; 255
    28c8:	94 01       	movw	r18, r8
    28ca:	ae 01       	movw	r20, r28
    28cc:	47 53       	subi	r20, 0x37	; 55
    28ce:	5f 4f       	sbci	r21, 0xFF	; 255
    28d0:	b5 01       	movw	r22, r10
    28d2:	8c e3       	ldi	r24, 0x3C	; 60
    28d4:	91 e0       	ldi	r25, 0x01	; 1
    28d6:	0e 94 4e 09 	call	0x129c	; 0x129c <_ZN3TWI5writeERKhS1_S1_PS0_>
    28da:	f6 01       	movw	r30, r12
    28dc:	80 83       	st	Z, r24
    28de:	90 e8       	ldi	r25, 0x80	; 128
    28e0:	59 2e       	mov	r5, r25
    28e2:	c5 53       	subi	r28, 0x35	; 53
    28e4:	df 4f       	sbci	r29, 0xFF	; 255
    28e6:	58 82       	st	Y, r5
    28e8:	cb 5c       	subi	r28, 0xCB	; 203
    28ea:	d0 40       	sbci	r29, 0x00	; 0
    28ec:	c6 53       	subi	r28, 0x36	; 54
    28ee:	df 4f       	sbci	r29, 0xFF	; 255
    28f0:	f8 82       	st	Y, r15
    28f2:	ca 5c       	subi	r28, 0xCA	; 202
    28f4:	d0 40       	sbci	r29, 0x00	; 0
    28f6:	f9 82       	std	Y+1, r15	; 0x01
    28f8:	0e 5f       	subi	r16, 0xFE	; 254
    28fa:	1f 4f       	sbci	r17, 0xFF	; 255
    28fc:	94 01       	movw	r18, r8
    28fe:	ae 01       	movw	r20, r28
    2900:	45 53       	subi	r20, 0x35	; 53
    2902:	5f 4f       	sbci	r21, 0xFF	; 255
    2904:	b5 01       	movw	r22, r10
    2906:	8c e3       	ldi	r24, 0x3C	; 60
    2908:	91 e0       	ldi	r25, 0x01	; 1
    290a:	0e 94 4e 09 	call	0x129c	; 0x129c <_ZN3TWI5writeERKhS1_S1_PS0_>
    290e:	f6 01       	movw	r30, r12
    2910:	80 83       	st	Z, r24
    2912:	ee 24       	eor	r14, r14
    2914:	ea 94       	dec	r14
    2916:	c3 53       	subi	r28, 0x33	; 51
    2918:	df 4f       	sbci	r29, 0xFF	; 255
    291a:	e8 82       	st	Y, r14
    291c:	cd 5c       	subi	r28, 0xCD	; 205
    291e:	d0 40       	sbci	r29, 0x00	; 0
    2920:	c4 53       	subi	r28, 0x34	; 52
    2922:	df 4f       	sbci	r29, 0xFF	; 255
    2924:	f8 82       	st	Y, r15
    2926:	cc 5c       	subi	r28, 0xCC	; 204
    2928:	d0 40       	sbci	r29, 0x00	; 0
    292a:	f9 82       	std	Y+1, r15	; 0x01
    292c:	0e 5f       	subi	r16, 0xFE	; 254
    292e:	1f 4f       	sbci	r17, 0xFF	; 255
    2930:	94 01       	movw	r18, r8
    2932:	ae 01       	movw	r20, r28
    2934:	43 53       	subi	r20, 0x33	; 51
    2936:	5f 4f       	sbci	r21, 0xFF	; 255
    2938:	b5 01       	movw	r22, r10
    293a:	8c e3       	ldi	r24, 0x3C	; 60
    293c:	91 e0       	ldi	r25, 0x01	; 1
    293e:	0e 94 4e 09 	call	0x129c	; 0x129c <_ZN3TWI5writeERKhS1_S1_PS0_>
    2942:	f6 01       	movw	r30, r12
    2944:	80 83       	st	Z, r24
    2946:	c1 53       	subi	r28, 0x31	; 49
    2948:	df 4f       	sbci	r29, 0xFF	; 255
    294a:	18 82       	st	Y, r1
    294c:	cf 5c       	subi	r28, 0xCF	; 207
    294e:	d0 40       	sbci	r29, 0x00	; 0
    2950:	c2 53       	subi	r28, 0x32	; 50
    2952:	df 4f       	sbci	r29, 0xFF	; 255
    2954:	18 82       	st	Y, r1
    2956:	ce 5c       	subi	r28, 0xCE	; 206
    2958:	d0 40       	sbci	r29, 0x00	; 0
    295a:	f9 82       	std	Y+1, r15	; 0x01
    295c:	0e 5f       	subi	r16, 0xFE	; 254
    295e:	1f 4f       	sbci	r17, 0xFF	; 255
    2960:	94 01       	movw	r18, r8
    2962:	ae 01       	movw	r20, r28
    2964:	41 53       	subi	r20, 0x31	; 49
    2966:	5f 4f       	sbci	r21, 0xFF	; 255
    2968:	b5 01       	movw	r22, r10
    296a:	8c e3       	ldi	r24, 0x3C	; 60
    296c:	91 e0       	ldi	r25, 0x01	; 1
    296e:	0e 94 4e 09 	call	0x129c	; 0x129c <_ZN3TWI5writeERKhS1_S1_PS0_>
    2972:	f6 01       	movw	r30, r12
    2974:	80 83       	st	Z, r24
    2976:	81 e9       	ldi	r24, 0x91	; 145
    2978:	c0 53       	subi	r28, 0x30	; 48
    297a:	df 4f       	sbci	r29, 0xFF	; 255
    297c:	88 83       	st	Y, r24
    297e:	c0 5d       	subi	r28, 0xD0	; 208
    2980:	d0 40       	sbci	r29, 0x00	; 0
    2982:	f9 82       	std	Y+1, r15	; 0x01
    2984:	83 01       	movw	r16, r6
    2986:	94 01       	movw	r18, r8
    2988:	ae 01       	movw	r20, r28
    298a:	40 53       	subi	r20, 0x30	; 48
    298c:	5f 4f       	sbci	r21, 0xFF	; 255
    298e:	b5 01       	movw	r22, r10
    2990:	8c e3       	ldi	r24, 0x3C	; 60
    2992:	91 e0       	ldi	r25, 0x01	; 1
    2994:	0e 94 93 09 	call	0x1326	; 0x1326 <_ZN3TWI4readERKhS1_S1_Ph>
    2998:	f6 01       	movw	r30, r12
    299a:	80 83       	st	Z, r24
    299c:	8f 81       	ldd	r24, Y+7	; 0x07
    299e:	87 83       	std	Z+7, r24	; 0x07
    29a0:	ce 52       	subi	r28, 0x2E	; 46
    29a2:	df 4f       	sbci	r29, 0xFF	; 255
    29a4:	18 82       	st	Y, r1
    29a6:	c2 5d       	subi	r28, 0xD2	; 210
    29a8:	d0 40       	sbci	r29, 0x00	; 0
    29aa:	cf 52       	subi	r28, 0x2F	; 47
    29ac:	df 4f       	sbci	r29, 0xFF	; 255
    29ae:	f8 82       	st	Y, r15
    29b0:	c1 5d       	subi	r28, 0xD1	; 209
    29b2:	d0 40       	sbci	r29, 0x00	; 0
    29b4:	f9 82       	std	Y+1, r15	; 0x01
    29b6:	8e 01       	movw	r16, r28
    29b8:	0f 52       	subi	r16, 0x2F	; 47
    29ba:	1f 4f       	sbci	r17, 0xFF	; 255
    29bc:	94 01       	movw	r18, r8
    29be:	ae 01       	movw	r20, r28
    29c0:	4e 52       	subi	r20, 0x2E	; 46
    29c2:	5f 4f       	sbci	r21, 0xFF	; 255
    29c4:	b5 01       	movw	r22, r10
    29c6:	8c e3       	ldi	r24, 0x3C	; 60
    29c8:	91 e0       	ldi	r25, 0x01	; 1
    29ca:	0e 94 4e 09 	call	0x129c	; 0x129c <_ZN3TWI5writeERKhS1_S1_PS0_>
    29ce:	f6 01       	movw	r30, r12
    29d0:	80 83       	st	Z, r24
    29d2:	cc 52       	subi	r28, 0x2C	; 44
    29d4:	df 4f       	sbci	r29, 0xFF	; 255
    29d6:	e8 82       	st	Y, r14
    29d8:	c4 5d       	subi	r28, 0xD4	; 212
    29da:	d0 40       	sbci	r29, 0x00	; 0
    29dc:	cd 52       	subi	r28, 0x2D	; 45
    29de:	df 4f       	sbci	r29, 0xFF	; 255
    29e0:	18 82       	st	Y, r1
    29e2:	c3 5d       	subi	r28, 0xD3	; 211
    29e4:	d0 40       	sbci	r29, 0x00	; 0
    29e6:	f9 82       	std	Y+1, r15	; 0x01
    29e8:	0e 5f       	subi	r16, 0xFE	; 254
    29ea:	1f 4f       	sbci	r17, 0xFF	; 255
    29ec:	94 01       	movw	r18, r8
    29ee:	ae 01       	movw	r20, r28
    29f0:	4c 52       	subi	r20, 0x2C	; 44
    29f2:	5f 4f       	sbci	r21, 0xFF	; 255
    29f4:	b5 01       	movw	r22, r10
    29f6:	8c e3       	ldi	r24, 0x3C	; 60
    29f8:	91 e0       	ldi	r25, 0x01	; 1
    29fa:	0e 94 4e 09 	call	0x129c	; 0x129c <_ZN3TWI5writeERKhS1_S1_PS0_>
    29fe:	f6 01       	movw	r30, r12
    2a00:	80 83       	st	Z, r24
    2a02:	ca 52       	subi	r28, 0x2A	; 42
    2a04:	df 4f       	sbci	r29, 0xFF	; 255
    2a06:	58 82       	st	Y, r5
    2a08:	c6 5d       	subi	r28, 0xD6	; 214
    2a0a:	d0 40       	sbci	r29, 0x00	; 0
    2a0c:	cb 52       	subi	r28, 0x2B	; 43
    2a0e:	df 4f       	sbci	r29, 0xFF	; 255
    2a10:	18 82       	st	Y, r1
    2a12:	c5 5d       	subi	r28, 0xD5	; 213
    2a14:	d0 40       	sbci	r29, 0x00	; 0
    2a16:	f9 82       	std	Y+1, r15	; 0x01
    2a18:	0e 5f       	subi	r16, 0xFE	; 254
    2a1a:	1f 4f       	sbci	r17, 0xFF	; 255
    2a1c:	94 01       	movw	r18, r8
    2a1e:	ae 01       	movw	r20, r28
    2a20:	4a 52       	subi	r20, 0x2A	; 42
    2a22:	5f 4f       	sbci	r21, 0xFF	; 255
    2a24:	b5 01       	movw	r22, r10
    2a26:	8c e3       	ldi	r24, 0x3C	; 60
    2a28:	91 e0       	ldi	r25, 0x01	; 1
    2a2a:	0e 94 4e 09 	call	0x129c	; 0x129c <_ZN3TWI5writeERKhS1_S1_PS0_>
    2a2e:	f6 01       	movw	r30, r12
    2a30:	80 83       	st	Z, r24
    2a32:	20 e6       	ldi	r18, 0x60	; 96
    2a34:	52 2e       	mov	r5, r18
    2a36:	c9 52       	subi	r28, 0x29	; 41
    2a38:	df 4f       	sbci	r29, 0xFF	; 255
    2a3a:	58 82       	st	Y, r5
    2a3c:	c7 5d       	subi	r28, 0xD7	; 215
    2a3e:	d0 40       	sbci	r29, 0x00	; 0
    2a40:	f9 82       	std	Y+1, r15	; 0x01
    2a42:	83 01       	movw	r16, r6
    2a44:	94 01       	movw	r18, r8
    2a46:	ae 01       	movw	r20, r28
    2a48:	49 52       	subi	r20, 0x29	; 41
    2a4a:	5f 4f       	sbci	r21, 0xFF	; 255
    2a4c:	b5 01       	movw	r22, r10
    2a4e:	8c e3       	ldi	r24, 0x3C	; 60
    2a50:	91 e0       	ldi	r25, 0x01	; 1
    2a52:	0e 94 93 09 	call	0x1326	; 0x1326 <_ZN3TWI4readERKhS1_S1_Ph>
    2a56:	f6 01       	movw	r30, r12
    2a58:	80 83       	st	Z, r24
    2a5a:	8f 81       	ldd	r24, Y+7	; 0x07
    2a5c:	c7 52       	subi	r28, 0x27	; 39
    2a5e:	df 4f       	sbci	r29, 0xFF	; 255
    2a60:	58 82       	st	Y, r5
    2a62:	c9 5d       	subi	r28, 0xD9	; 217
    2a64:	d0 40       	sbci	r29, 0x00	; 0
    2a66:	82 61       	ori	r24, 0x12	; 18
    2a68:	c8 52       	subi	r28, 0x28	; 40
    2a6a:	df 4f       	sbci	r29, 0xFF	; 255
    2a6c:	88 83       	st	Y, r24
    2a6e:	c8 5d       	subi	r28, 0xD8	; 216
    2a70:	d0 40       	sbci	r29, 0x00	; 0
    2a72:	f9 82       	std	Y+1, r15	; 0x01
    2a74:	8e 01       	movw	r16, r28
    2a76:	08 52       	subi	r16, 0x28	; 40
    2a78:	1f 4f       	sbci	r17, 0xFF	; 255
    2a7a:	94 01       	movw	r18, r8
    2a7c:	ae 01       	movw	r20, r28
    2a7e:	47 52       	subi	r20, 0x27	; 39
    2a80:	5f 4f       	sbci	r21, 0xFF	; 255
    2a82:	b5 01       	movw	r22, r10
    2a84:	8c e3       	ldi	r24, 0x3C	; 60
    2a86:	91 e0       	ldi	r25, 0x01	; 1
    2a88:	0e 94 4e 09 	call	0x129c	; 0x129c <_ZN3TWI5writeERKhS1_S1_PS0_>
    2a8c:	f6 01       	movw	r30, r12
    2a8e:	80 83       	st	Z, r24
    2a90:	84 e4       	ldi	r24, 0x44	; 68
    2a92:	89 87       	std	Y+9, r24	; 0x09
    2a94:	8c e0       	ldi	r24, 0x0C	; 12
    2a96:	90 e0       	ldi	r25, 0x00	; 0
    2a98:	98 87       	std	Y+8, r25	; 0x08
    2a9a:	8f 83       	std	Y+7, r24	; 0x07
    2a9c:	82 e0       	ldi	r24, 0x02	; 2
    2a9e:	89 83       	std	Y+1, r24	; 0x01
    2aa0:	83 01       	movw	r16, r6
    2aa2:	94 01       	movw	r18, r8
    2aa4:	ae 01       	movw	r20, r28
    2aa6:	47 5f       	subi	r20, 0xF7	; 247
    2aa8:	5f 4f       	sbci	r21, 0xFF	; 255
    2aaa:	b5 01       	movw	r22, r10
    2aac:	8c e3       	ldi	r24, 0x3C	; 60
    2aae:	91 e0       	ldi	r25, 0x01	; 1
    2ab0:	0e 94 4e 09 	call	0x129c	; 0x129c <_ZN3TWI5writeERKhS1_S1_PS0_>
    2ab4:	f6 01       	movw	r30, r12
    2ab6:	80 83       	st	Z, r24
    2ab8:	c5 52       	subi	r28, 0x25	; 37
    2aba:	df 4f       	sbci	r29, 0xFF	; 255
    2abc:	f8 82       	st	Y, r15
    2abe:	cb 5d       	subi	r28, 0xDB	; 219
    2ac0:	d0 40       	sbci	r29, 0x00	; 0
    2ac2:	c6 52       	subi	r28, 0x26	; 38
    2ac4:	df 4f       	sbci	r29, 0xFF	; 255
    2ac6:	e8 82       	st	Y, r14
    2ac8:	ca 5d       	subi	r28, 0xDA	; 218
    2aca:	d0 40       	sbci	r29, 0x00	; 0
    2acc:	f9 82       	std	Y+1, r15	; 0x01
    2ace:	8e 01       	movw	r16, r28
    2ad0:	06 52       	subi	r16, 0x26	; 38
    2ad2:	1f 4f       	sbci	r17, 0xFF	; 255
    2ad4:	94 01       	movw	r18, r8
    2ad6:	ae 01       	movw	r20, r28
    2ad8:	45 52       	subi	r20, 0x25	; 37
    2ada:	5f 4f       	sbci	r21, 0xFF	; 255
    2adc:	b5 01       	movw	r22, r10
    2ade:	8c e3       	ldi	r24, 0x3C	; 60
    2ae0:	91 e0       	ldi	r25, 0x01	; 1
    2ae2:	0e 94 4e 09 	call	0x129c	; 0x129c <_ZN3TWI5writeERKhS1_S1_PS0_>
    2ae6:	f6 01       	movw	r30, r12
    2ae8:	80 83       	st	Z, r24
    2aea:	ae 01       	movw	r20, r28
    2aec:	41 52       	subi	r20, 0x21	; 33
    2aee:	5f 4f       	sbci	r21, 0xFF	; 255
    2af0:	be 01       	movw	r22, r28
    2af2:	60 52       	subi	r22, 0x20	; 32
    2af4:	7f 4f       	sbci	r23, 0xFF	; 255
    2af6:	c6 01       	movw	r24, r12
    2af8:	0e 94 d5 0f 	call	0x1faa	; 0x1faa <_ZN7VL53L0X11getSpadInfoEPhPb>
    2afc:	81 11       	cpse	r24, r1
    2afe:	55 c0       	rjmp	.+170    	; 0x2baa <_ZN7VL53L0X4initEb+0x366>
    2b00:	82 e0       	ldi	r24, 0x02	; 2
    2b02:	c0 52       	subi	r28, 0x20	; 32
    2b04:	df 4f       	sbci	r29, 0xFF	; 255
    2b06:	0f b6       	in	r0, 0x3f	; 63
    2b08:	f8 94       	cli
    2b0a:	de bf       	out	0x3e, r29	; 62
    2b0c:	0f be       	out	0x3f, r0	; 63
    2b0e:	cd bf       	out	0x3d, r28	; 61
    2b10:	df 91       	pop	r29
    2b12:	cf 91       	pop	r28
    2b14:	1f 91       	pop	r17
    2b16:	0f 91       	pop	r16
    2b18:	ff 90       	pop	r15
    2b1a:	ef 90       	pop	r14
    2b1c:	df 90       	pop	r13
    2b1e:	cf 90       	pop	r12
    2b20:	bf 90       	pop	r11
    2b22:	af 90       	pop	r10
    2b24:	9f 90       	pop	r9
    2b26:	8f 90       	pop	r8
    2b28:	7f 90       	pop	r7
    2b2a:	6f 90       	pop	r6
    2b2c:	5f 90       	pop	r5
    2b2e:	4f 90       	pop	r4
    2b30:	3f 90       	pop	r3
    2b32:	2f 90       	pop	r2
    2b34:	08 95       	ret
    2b36:	81 e0       	ldi	r24, 0x01	; 1
    2b38:	e4 cf       	rjmp	.-56     	; 0x2b02 <_ZN7VL53L0X4initEb+0x2be>
    2b3a:	39 e8       	ldi	r19, 0x89	; 137
    2b3c:	e3 2e       	mov	r14, r19
    2b3e:	c4 52       	subi	r28, 0x24	; 36
    2b40:	df 4f       	sbci	r29, 0xFF	; 255
    2b42:	e8 82       	st	Y, r14
    2b44:	cc 5d       	subi	r28, 0xDC	; 220
    2b46:	d0 40       	sbci	r29, 0x00	; 0
    2b48:	ff 24       	eor	r15, r15
    2b4a:	f3 94       	inc	r15
    2b4c:	f9 82       	std	Y+1, r15	; 0x01
    2b4e:	3e 01       	movw	r6, r28
    2b50:	97 e0       	ldi	r25, 0x07	; 7
    2b52:	69 0e       	add	r6, r25
    2b54:	71 1c       	adc	r7, r1
    2b56:	83 01       	movw	r16, r6
    2b58:	fe 01       	movw	r30, r28
    2b5a:	31 96       	adiw	r30, 0x01	; 1
    2b5c:	4f 01       	movw	r8, r30
    2b5e:	9f 01       	movw	r18, r30
    2b60:	ae 01       	movw	r20, r28
    2b62:	44 52       	subi	r20, 0x24	; 36
    2b64:	5f 4f       	sbci	r21, 0xFF	; 255
    2b66:	b5 01       	movw	r22, r10
    2b68:	8c e3       	ldi	r24, 0x3C	; 60
    2b6a:	91 e0       	ldi	r25, 0x01	; 1
    2b6c:	0e 94 93 09 	call	0x1326	; 0x1326 <_ZN3TWI4readERKhS1_S1_Ph>
    2b70:	f6 01       	movw	r30, r12
    2b72:	80 83       	st	Z, r24
    2b74:	8f 81       	ldd	r24, Y+7	; 0x07
    2b76:	c2 52       	subi	r28, 0x22	; 34
    2b78:	df 4f       	sbci	r29, 0xFF	; 255
    2b7a:	e8 82       	st	Y, r14
    2b7c:	ce 5d       	subi	r28, 0xDE	; 222
    2b7e:	d0 40       	sbci	r29, 0x00	; 0
    2b80:	81 60       	ori	r24, 0x01	; 1
    2b82:	c3 52       	subi	r28, 0x23	; 35
    2b84:	df 4f       	sbci	r29, 0xFF	; 255
    2b86:	88 83       	st	Y, r24
    2b88:	cd 5d       	subi	r28, 0xDD	; 221
    2b8a:	d0 40       	sbci	r29, 0x00	; 0
    2b8c:	f9 82       	std	Y+1, r15	; 0x01
    2b8e:	0a 52       	subi	r16, 0x2A	; 42
    2b90:	1f 4f       	sbci	r17, 0xFF	; 255
    2b92:	94 01       	movw	r18, r8
    2b94:	ae 01       	movw	r20, r28
    2b96:	42 52       	subi	r20, 0x22	; 34
    2b98:	5f 4f       	sbci	r21, 0xFF	; 255
    2b9a:	b5 01       	movw	r22, r10
    2b9c:	8c e3       	ldi	r24, 0x3C	; 60
    2b9e:	91 e0       	ldi	r25, 0x01	; 1
    2ba0:	0e 94 4e 09 	call	0x129c	; 0x129c <_ZN3TWI5writeERKhS1_S1_PS0_>
    2ba4:	f6 01       	movw	r30, r12
    2ba6:	80 83       	st	Z, r24
    2ba8:	7e ce       	rjmp	.-772    	; 0x28a6 <_ZN7VL53L0X4initEb+0x62>
    2baa:	80 eb       	ldi	r24, 0xB0	; 176
    2bac:	c3 54       	subi	r28, 0x43	; 67
    2bae:	df 4f       	sbci	r29, 0xFF	; 255
    2bb0:	88 83       	st	Y, r24
    2bb2:	cd 5b       	subi	r28, 0xBD	; 189
    2bb4:	d0 40       	sbci	r29, 0x00	; 0
    2bb6:	86 e0       	ldi	r24, 0x06	; 6
    2bb8:	c4 54       	subi	r28, 0x44	; 68
    2bba:	df 4f       	sbci	r29, 0xFF	; 255
    2bbc:	88 83       	st	Y, r24
    2bbe:	cc 5b       	subi	r28, 0xBC	; 188
    2bc0:	d0 40       	sbci	r29, 0x00	; 0
    2bc2:	84 01       	movw	r16, r8
    2bc4:	9e 01       	movw	r18, r28
    2bc6:	24 54       	subi	r18, 0x44	; 68
    2bc8:	3f 4f       	sbci	r19, 0xFF	; 255
    2bca:	ae 01       	movw	r20, r28
    2bcc:	43 54       	subi	r20, 0x43	; 67
    2bce:	5f 4f       	sbci	r21, 0xFF	; 255
    2bd0:	b5 01       	movw	r22, r10
    2bd2:	8c e3       	ldi	r24, 0x3C	; 60
    2bd4:	91 e0       	ldi	r25, 0x01	; 1
    2bd6:	0e 94 93 09 	call	0x1326	; 0x1326 <_ZN3TWI4readERKhS1_S1_Ph>
    2bda:	f6 01       	movw	r30, r12
    2bdc:	80 83       	st	Z, r24
    2bde:	c1 54       	subi	r28, 0x41	; 65
    2be0:	df 4f       	sbci	r29, 0xFF	; 255
    2be2:	e8 82       	st	Y, r14
    2be4:	cf 5b       	subi	r28, 0xBF	; 191
    2be6:	d0 40       	sbci	r29, 0x00	; 0
    2be8:	c2 54       	subi	r28, 0x42	; 66
    2bea:	df 4f       	sbci	r29, 0xFF	; 255
    2bec:	f8 82       	st	Y, r15
    2bee:	ce 5b       	subi	r28, 0xBE	; 190
    2bf0:	d0 40       	sbci	r29, 0x00	; 0
    2bf2:	fa 86       	std	Y+10, r15	; 0x0a
    2bf4:	8e 01       	movw	r16, r28
    2bf6:	02 54       	subi	r16, 0x42	; 66
    2bf8:	1f 4f       	sbci	r17, 0xFF	; 255
    2bfa:	9e 01       	movw	r18, r28
    2bfc:	26 5f       	subi	r18, 0xF6	; 246
    2bfe:	3f 4f       	sbci	r19, 0xFF	; 255
    2c00:	ae 01       	movw	r20, r28
    2c02:	41 54       	subi	r20, 0x41	; 65
    2c04:	5f 4f       	sbci	r21, 0xFF	; 255
    2c06:	b5 01       	movw	r22, r10
    2c08:	8c e3       	ldi	r24, 0x3C	; 60
    2c0a:	91 e0       	ldi	r25, 0x01	; 1
    2c0c:	0e 94 4e 09 	call	0x129c	; 0x129c <_ZN3TWI5writeERKhS1_S1_PS0_>
    2c10:	f6 01       	movw	r30, r12
    2c12:	80 83       	st	Z, r24
    2c14:	8f e4       	ldi	r24, 0x4F	; 79
    2c16:	cf 53       	subi	r28, 0x3F	; 63
    2c18:	df 4f       	sbci	r29, 0xFF	; 255
    2c1a:	88 83       	st	Y, r24
    2c1c:	c1 5c       	subi	r28, 0xC1	; 193
    2c1e:	d0 40       	sbci	r29, 0x00	; 0
    2c20:	c0 54       	subi	r28, 0x40	; 64
    2c22:	df 4f       	sbci	r29, 0xFF	; 255
    2c24:	18 82       	st	Y, r1
    2c26:	c0 5c       	subi	r28, 0xC0	; 192
    2c28:	d0 40       	sbci	r29, 0x00	; 0
    2c2a:	fa 86       	std	Y+10, r15	; 0x0a
    2c2c:	0e 5f       	subi	r16, 0xFE	; 254
    2c2e:	1f 4f       	sbci	r17, 0xFF	; 255
    2c30:	9e 01       	movw	r18, r28
    2c32:	26 5f       	subi	r18, 0xF6	; 246
    2c34:	3f 4f       	sbci	r19, 0xFF	; 255
    2c36:	ae 01       	movw	r20, r28
    2c38:	4f 53       	subi	r20, 0x3F	; 63
    2c3a:	5f 4f       	sbci	r21, 0xFF	; 255
    2c3c:	b5 01       	movw	r22, r10
    2c3e:	8c e3       	ldi	r24, 0x3C	; 60
    2c40:	91 e0       	ldi	r25, 0x01	; 1
    2c42:	0e 94 4e 09 	call	0x129c	; 0x129c <_ZN3TWI5writeERKhS1_S1_PS0_>
    2c46:	f6 01       	movw	r30, r12
    2c48:	80 83       	st	Z, r24
    2c4a:	8e e4       	ldi	r24, 0x4E	; 78
    2c4c:	cd 53       	subi	r28, 0x3D	; 61
    2c4e:	df 4f       	sbci	r29, 0xFF	; 255
    2c50:	88 83       	st	Y, r24
    2c52:	c3 5c       	subi	r28, 0xC3	; 195
    2c54:	d0 40       	sbci	r29, 0x00	; 0
    2c56:	8c e2       	ldi	r24, 0x2C	; 44
    2c58:	ce 53       	subi	r28, 0x3E	; 62
    2c5a:	df 4f       	sbci	r29, 0xFF	; 255
    2c5c:	88 83       	st	Y, r24
    2c5e:	c2 5c       	subi	r28, 0xC2	; 194
    2c60:	d0 40       	sbci	r29, 0x00	; 0
    2c62:	fa 86       	std	Y+10, r15	; 0x0a
    2c64:	0e 5f       	subi	r16, 0xFE	; 254
    2c66:	1f 4f       	sbci	r17, 0xFF	; 255
    2c68:	9e 01       	movw	r18, r28
    2c6a:	26 5f       	subi	r18, 0xF6	; 246
    2c6c:	3f 4f       	sbci	r19, 0xFF	; 255
    2c6e:	ae 01       	movw	r20, r28
    2c70:	4d 53       	subi	r20, 0x3D	; 61
    2c72:	5f 4f       	sbci	r21, 0xFF	; 255
    2c74:	b5 01       	movw	r22, r10
    2c76:	8c e3       	ldi	r24, 0x3C	; 60
    2c78:	91 e0       	ldi	r25, 0x01	; 1
    2c7a:	0e 94 4e 09 	call	0x129c	; 0x129c <_ZN3TWI5writeERKhS1_S1_PS0_>
    2c7e:	f6 01       	movw	r30, r12
    2c80:	80 83       	st	Z, r24
    2c82:	cb 53       	subi	r28, 0x3B	; 59
    2c84:	df 4f       	sbci	r29, 0xFF	; 255
    2c86:	e8 82       	st	Y, r14
    2c88:	c5 5c       	subi	r28, 0xC5	; 197
    2c8a:	d0 40       	sbci	r29, 0x00	; 0
    2c8c:	cc 53       	subi	r28, 0x3C	; 60
    2c8e:	df 4f       	sbci	r29, 0xFF	; 255
    2c90:	18 82       	st	Y, r1
    2c92:	c4 5c       	subi	r28, 0xC4	; 196
    2c94:	d0 40       	sbci	r29, 0x00	; 0
    2c96:	fa 86       	std	Y+10, r15	; 0x0a
    2c98:	0e 5f       	subi	r16, 0xFE	; 254
    2c9a:	1f 4f       	sbci	r17, 0xFF	; 255
    2c9c:	9e 01       	movw	r18, r28
    2c9e:	26 5f       	subi	r18, 0xF6	; 246
    2ca0:	3f 4f       	sbci	r19, 0xFF	; 255
    2ca2:	ae 01       	movw	r20, r28
    2ca4:	4b 53       	subi	r20, 0x3B	; 59
    2ca6:	5f 4f       	sbci	r21, 0xFF	; 255
    2ca8:	b5 01       	movw	r22, r10
    2caa:	8c e3       	ldi	r24, 0x3C	; 60
    2cac:	91 e0       	ldi	r25, 0x01	; 1
    2cae:	0e 94 4e 09 	call	0x129c	; 0x129c <_ZN3TWI5writeERKhS1_S1_PS0_>
    2cb2:	f6 01       	movw	r30, r12
    2cb4:	80 83       	st	Z, r24
    2cb6:	86 eb       	ldi	r24, 0xB6	; 182
    2cb8:	c9 53       	subi	r28, 0x39	; 57
    2cba:	df 4f       	sbci	r29, 0xFF	; 255
    2cbc:	88 83       	st	Y, r24
    2cbe:	c7 5c       	subi	r28, 0xC7	; 199
    2cc0:	d0 40       	sbci	r29, 0x00	; 0
    2cc2:	84 eb       	ldi	r24, 0xB4	; 180
    2cc4:	ca 53       	subi	r28, 0x3A	; 58
    2cc6:	df 4f       	sbci	r29, 0xFF	; 255
    2cc8:	88 83       	st	Y, r24
    2cca:	c6 5c       	subi	r28, 0xC6	; 198
    2ccc:	d0 40       	sbci	r29, 0x00	; 0
    2cce:	fa 86       	std	Y+10, r15	; 0x0a
    2cd0:	0e 5f       	subi	r16, 0xFE	; 254
    2cd2:	1f 4f       	sbci	r17, 0xFF	; 255
    2cd4:	9e 01       	movw	r18, r28
    2cd6:	26 5f       	subi	r18, 0xF6	; 246
    2cd8:	3f 4f       	sbci	r19, 0xFF	; 255
    2cda:	ae 01       	movw	r20, r28
    2cdc:	49 53       	subi	r20, 0x39	; 57
    2cde:	5f 4f       	sbci	r21, 0xFF	; 255
    2ce0:	b5 01       	movw	r22, r10
    2ce2:	8c e3       	ldi	r24, 0x3C	; 60
    2ce4:	91 e0       	ldi	r25, 0x01	; 1
    2ce6:	0e 94 4e 09 	call	0x129c	; 0x129c <_ZN3TWI5writeERKhS1_S1_PS0_>
    2cea:	f6 01       	movw	r30, r12
    2cec:	80 83       	st	Z, r24
    2cee:	c1 52       	subi	r28, 0x21	; 33
    2cf0:	df 4f       	sbci	r29, 0xFF	; 255
    2cf2:	88 81       	ld	r24, Y
    2cf4:	cf 5d       	subi	r28, 0xDF	; 223
    2cf6:	d0 40       	sbci	r29, 0x00	; 0
    2cf8:	81 11       	cpse	r24, r1
    2cfa:	0c 94 e6 1e 	jmp	0x3dcc	; 0x3dcc <_ZN7VL53L0X4initEb+0x1588>
    2cfe:	40 e0       	ldi	r20, 0x00	; 0
    2d00:	c0 52       	subi	r28, 0x20	; 32
    2d02:	df 4f       	sbci	r29, 0xFF	; 255
    2d04:	78 81       	ld	r23, Y
    2d06:	c0 5e       	subi	r28, 0xE0	; 224
    2d08:	d0 40       	sbci	r29, 0x00	; 0
    2d0a:	f1 2c       	mov	r15, r1
    2d0c:	50 e0       	ldi	r21, 0x00	; 0
    2d0e:	21 e0       	ldi	r18, 0x01	; 1
    2d10:	30 e0       	ldi	r19, 0x00	; 0
    2d12:	a7 2f       	mov	r26, r23
    2d14:	8f 2d       	mov	r24, r15
    2d16:	10 c0       	rjmp	.+32     	; 0x2d38 <_ZN7VL53L0X4initEb+0x4f4>
    2d18:	a5 17       	cp	r26, r21
    2d1a:	b9 f0       	breq	.+46     	; 0x2d4a <_ZN7VL53L0X4initEb+0x506>
    2d1c:	60 81       	ld	r22, Z
    2d1e:	70 e0       	ldi	r23, 0x00	; 0
    2d20:	98 2f       	mov	r25, r24
    2d22:	97 70       	andi	r25, 0x07	; 7
    2d24:	02 c0       	rjmp	.+4      	; 0x2d2a <_ZN7VL53L0X4initEb+0x4e6>
    2d26:	75 95       	asr	r23
    2d28:	67 95       	ror	r22
    2d2a:	9a 95       	dec	r25
    2d2c:	e2 f7       	brpl	.-8      	; 0x2d26 <_ZN7VL53L0X4initEb+0x4e2>
    2d2e:	60 fd       	sbrc	r22, 0
    2d30:	5f 5f       	subi	r21, 0xFF	; 255
    2d32:	8f 5f       	subi	r24, 0xFF	; 255
    2d34:	80 33       	cpi	r24, 0x30	; 48
    2d36:	c1 f0       	breq	.+48     	; 0x2d68 <_ZN7VL53L0X4initEb+0x524>
    2d38:	98 2f       	mov	r25, r24
    2d3a:	96 95       	lsr	r25
    2d3c:	96 95       	lsr	r25
    2d3e:	96 95       	lsr	r25
    2d40:	f4 01       	movw	r30, r8
    2d42:	e9 0f       	add	r30, r25
    2d44:	f1 1d       	adc	r31, r1
    2d46:	84 17       	cp	r24, r20
    2d48:	38 f7       	brcc	.-50     	; 0x2d18 <_ZN7VL53L0X4initEb+0x4d4>
    2d4a:	98 2f       	mov	r25, r24
    2d4c:	97 70       	andi	r25, 0x07	; 7
    2d4e:	b9 01       	movw	r22, r18
    2d50:	01 c0       	rjmp	.+2      	; 0x2d54 <_ZN7VL53L0X4initEb+0x510>
    2d52:	66 0f       	add	r22, r22
    2d54:	9a 95       	dec	r25
    2d56:	ea f7       	brpl	.-6      	; 0x2d52 <_ZN7VL53L0X4initEb+0x50e>
    2d58:	96 2f       	mov	r25, r22
    2d5a:	90 95       	com	r25
    2d5c:	60 81       	ld	r22, Z
    2d5e:	96 23       	and	r25, r22
    2d60:	90 83       	st	Z, r25
    2d62:	8f 5f       	subi	r24, 0xFF	; 255
    2d64:	80 33       	cpi	r24, 0x30	; 48
    2d66:	41 f7       	brne	.-48     	; 0x2d38 <_ZN7VL53L0X4initEb+0x4f4>
    2d68:	f8 2e       	mov	r15, r24
    2d6a:	80 eb       	ldi	r24, 0xB0	; 176
    2d6c:	88 8b       	std	Y+16, r24	; 0x10
    2d6e:	86 e0       	ldi	r24, 0x06	; 6
    2d70:	58 2e       	mov	r5, r24
    2d72:	5f 86       	std	Y+15, r5	; 0x0f
    2d74:	84 01       	movw	r16, r8
    2d76:	9e 01       	movw	r18, r28
    2d78:	21 5f       	subi	r18, 0xF1	; 241
    2d7a:	3f 4f       	sbci	r19, 0xFF	; 255
    2d7c:	ae 01       	movw	r20, r28
    2d7e:	40 5f       	subi	r20, 0xF0	; 240
    2d80:	5f 4f       	sbci	r21, 0xFF	; 255
    2d82:	b5 01       	movw	r22, r10
    2d84:	8c e3       	ldi	r24, 0x3C	; 60
    2d86:	91 e0       	ldi	r25, 0x01	; 1
    2d88:	0e 94 4e 09 	call	0x129c	; 0x129c <_ZN3TWI5writeERKhS1_S1_PS0_>
    2d8c:	f6 01       	movw	r30, r12
    2d8e:	80 83       	st	Z, r24
    2d90:	42 e0       	ldi	r20, 0x02	; 2
    2d92:	50 e0       	ldi	r21, 0x00	; 0
    2d94:	60 e0       	ldi	r22, 0x00	; 0
    2d96:	70 e0       	ldi	r23, 0x00	; 0
    2d98:	88 e8       	ldi	r24, 0x88	; 136
    2d9a:	91 e0       	ldi	r25, 0x01	; 1
    2d9c:	0e 94 ff 08 	call	0x11fe	; 0x11fe <_ZN4Time5delayEm>
    2da0:	99 24       	eor	r9, r9
    2da2:	9a 94       	dec	r9
    2da4:	9a 8a       	std	Y+18, r9	; 0x12
    2da6:	ee 24       	eor	r14, r14
    2da8:	e3 94       	inc	r14
    2daa:	e9 8a       	std	Y+17, r14	; 0x11
    2dac:	ea 86       	std	Y+10, r14	; 0x0a
    2dae:	8e 01       	movw	r16, r28
    2db0:	0f 5e       	subi	r16, 0xEF	; 239
    2db2:	1f 4f       	sbci	r17, 0xFF	; 255
    2db4:	9e 01       	movw	r18, r28
    2db6:	26 5f       	subi	r18, 0xF6	; 246
    2db8:	3f 4f       	sbci	r19, 0xFF	; 255
    2dba:	ae 01       	movw	r20, r28
    2dbc:	4e 5e       	subi	r20, 0xEE	; 238
    2dbe:	5f 4f       	sbci	r21, 0xFF	; 255
    2dc0:	b5 01       	movw	r22, r10
    2dc2:	8c e3       	ldi	r24, 0x3C	; 60
    2dc4:	91 e0       	ldi	r25, 0x01	; 1
    2dc6:	0e 94 4e 09 	call	0x129c	; 0x129c <_ZN3TWI5writeERKhS1_S1_PS0_>
    2dca:	f6 01       	movw	r30, r12
    2dcc:	80 83       	st	Z, r24
    2dce:	1c 8a       	std	Y+20, r1	; 0x14
    2dd0:	1b 8a       	std	Y+19, r1	; 0x13
    2dd2:	ea 86       	std	Y+10, r14	; 0x0a
    2dd4:	0e 5f       	subi	r16, 0xFE	; 254
    2dd6:	1f 4f       	sbci	r17, 0xFF	; 255
    2dd8:	9e 01       	movw	r18, r28
    2dda:	26 5f       	subi	r18, 0xF6	; 246
    2ddc:	3f 4f       	sbci	r19, 0xFF	; 255
    2dde:	ae 01       	movw	r20, r28
    2de0:	4c 5e       	subi	r20, 0xEC	; 236
    2de2:	5f 4f       	sbci	r21, 0xFF	; 255
    2de4:	b5 01       	movw	r22, r10
    2de6:	8c e3       	ldi	r24, 0x3C	; 60
    2de8:	91 e0       	ldi	r25, 0x01	; 1
    2dea:	0e 94 4e 09 	call	0x129c	; 0x129c <_ZN3TWI5writeERKhS1_S1_PS0_>
    2dee:	f6 01       	movw	r30, r12
    2df0:	80 83       	st	Z, r24
    2df2:	9e 8a       	std	Y+22, r9	; 0x16
    2df4:	1d 8a       	std	Y+21, r1	; 0x15
    2df6:	ea 86       	std	Y+10, r14	; 0x0a
    2df8:	0e 5f       	subi	r16, 0xFE	; 254
    2dfa:	1f 4f       	sbci	r17, 0xFF	; 255
    2dfc:	9e 01       	movw	r18, r28
    2dfe:	26 5f       	subi	r18, 0xF6	; 246
    2e00:	3f 4f       	sbci	r19, 0xFF	; 255
    2e02:	ae 01       	movw	r20, r28
    2e04:	4a 5e       	subi	r20, 0xEA	; 234
    2e06:	5f 4f       	sbci	r21, 0xFF	; 255
    2e08:	b5 01       	movw	r22, r10
    2e0a:	8c e3       	ldi	r24, 0x3C	; 60
    2e0c:	91 e0       	ldi	r25, 0x01	; 1
    2e0e:	0e 94 4e 09 	call	0x129c	; 0x129c <_ZN3TWI5writeERKhS1_S1_PS0_>
    2e12:	f6 01       	movw	r30, r12
    2e14:	80 83       	st	Z, r24
    2e16:	99 e0       	ldi	r25, 0x09	; 9
    2e18:	69 2e       	mov	r6, r25
    2e1a:	68 8e       	std	Y+24, r6	; 0x18
    2e1c:	1f 8a       	std	Y+23, r1	; 0x17
    2e1e:	ea 86       	std	Y+10, r14	; 0x0a
    2e20:	0e 5f       	subi	r16, 0xFE	; 254
    2e22:	1f 4f       	sbci	r17, 0xFF	; 255
    2e24:	9e 01       	movw	r18, r28
    2e26:	26 5f       	subi	r18, 0xF6	; 246
    2e28:	3f 4f       	sbci	r19, 0xFF	; 255
    2e2a:	ae 01       	movw	r20, r28
    2e2c:	48 5e       	subi	r20, 0xE8	; 232
    2e2e:	5f 4f       	sbci	r21, 0xFF	; 255
    2e30:	b5 01       	movw	r22, r10
    2e32:	8c e3       	ldi	r24, 0x3C	; 60
    2e34:	91 e0       	ldi	r25, 0x01	; 1
    2e36:	0e 94 4e 09 	call	0x129c	; 0x129c <_ZN3TWI5writeERKhS1_S1_PS0_>
    2e3a:	f6 01       	movw	r30, r12
    2e3c:	80 83       	st	Z, r24
    2e3e:	80 e1       	ldi	r24, 0x10	; 16
    2e40:	8a 8f       	std	Y+26, r24	; 0x1a
    2e42:	19 8e       	std	Y+25, r1	; 0x19
    2e44:	ea 86       	std	Y+10, r14	; 0x0a
    2e46:	0e 5f       	subi	r16, 0xFE	; 254
    2e48:	1f 4f       	sbci	r17, 0xFF	; 255
    2e4a:	9e 01       	movw	r18, r28
    2e4c:	26 5f       	subi	r18, 0xF6	; 246
    2e4e:	3f 4f       	sbci	r19, 0xFF	; 255
    2e50:	ae 01       	movw	r20, r28
    2e52:	46 5e       	subi	r20, 0xE6	; 230
    2e54:	5f 4f       	sbci	r21, 0xFF	; 255
    2e56:	b5 01       	movw	r22, r10
    2e58:	8c e3       	ldi	r24, 0x3C	; 60
    2e5a:	91 e0       	ldi	r25, 0x01	; 1
    2e5c:	0e 94 4e 09 	call	0x129c	; 0x129c <_ZN3TWI5writeERKhS1_S1_PS0_>
    2e60:	f6 01       	movw	r30, r12
    2e62:	80 83       	st	Z, r24
    2e64:	81 e1       	ldi	r24, 0x11	; 17
    2e66:	8c 8f       	std	Y+28, r24	; 0x1c
    2e68:	1b 8e       	std	Y+27, r1	; 0x1b
    2e6a:	ea 86       	std	Y+10, r14	; 0x0a
    2e6c:	0e 5f       	subi	r16, 0xFE	; 254
    2e6e:	1f 4f       	sbci	r17, 0xFF	; 255
    2e70:	9e 01       	movw	r18, r28
    2e72:	26 5f       	subi	r18, 0xF6	; 246
    2e74:	3f 4f       	sbci	r19, 0xFF	; 255
    2e76:	ae 01       	movw	r20, r28
    2e78:	44 5e       	subi	r20, 0xE4	; 228
    2e7a:	5f 4f       	sbci	r21, 0xFF	; 255
    2e7c:	b5 01       	movw	r22, r10
    2e7e:	8c e3       	ldi	r24, 0x3C	; 60
    2e80:	91 e0       	ldi	r25, 0x01	; 1
    2e82:	0e 94 4e 09 	call	0x129c	; 0x129c <_ZN3TWI5writeERKhS1_S1_PS0_>
    2e86:	f6 01       	movw	r30, r12
    2e88:	80 83       	st	Z, r24
    2e8a:	84 e2       	ldi	r24, 0x24	; 36
    2e8c:	8e 8f       	std	Y+30, r24	; 0x1e
    2e8e:	ed 8e       	std	Y+29, r14	; 0x1d
    2e90:	ea 86       	std	Y+10, r14	; 0x0a
    2e92:	0e 5f       	subi	r16, 0xFE	; 254
    2e94:	1f 4f       	sbci	r17, 0xFF	; 255
    2e96:	9e 01       	movw	r18, r28
    2e98:	26 5f       	subi	r18, 0xF6	; 246
    2e9a:	3f 4f       	sbci	r19, 0xFF	; 255
    2e9c:	ae 01       	movw	r20, r28
    2e9e:	42 5e       	subi	r20, 0xE2	; 226
    2ea0:	5f 4f       	sbci	r21, 0xFF	; 255
    2ea2:	b5 01       	movw	r22, r10
    2ea4:	8c e3       	ldi	r24, 0x3C	; 60
    2ea6:	91 e0       	ldi	r25, 0x01	; 1
    2ea8:	0e 94 4e 09 	call	0x129c	; 0x129c <_ZN3TWI5writeERKhS1_S1_PS0_>
    2eac:	f6 01       	movw	r30, r12
    2eae:	80 83       	st	Z, r24
    2eb0:	25 e2       	ldi	r18, 0x25	; 37
    2eb2:	22 2e       	mov	r2, r18
    2eb4:	28 a2       	std	Y+32, r2	; 0x20
    2eb6:	9f 8e       	std	Y+31, r9	; 0x1f
    2eb8:	ea 86       	std	Y+10, r14	; 0x0a
    2eba:	0e 5f       	subi	r16, 0xFE	; 254
    2ebc:	1f 4f       	sbci	r17, 0xFF	; 255
    2ebe:	9e 01       	movw	r18, r28
    2ec0:	26 5f       	subi	r18, 0xF6	; 246
    2ec2:	3f 4f       	sbci	r19, 0xFF	; 255
    2ec4:	ae 01       	movw	r20, r28
    2ec6:	40 5e       	subi	r20, 0xE0	; 224
    2ec8:	5f 4f       	sbci	r21, 0xFF	; 255
    2eca:	b5 01       	movw	r22, r10
    2ecc:	8c e3       	ldi	r24, 0x3C	; 60
    2ece:	91 e0       	ldi	r25, 0x01	; 1
    2ed0:	0e 94 4e 09 	call	0x129c	; 0x129c <_ZN3TWI5writeERKhS1_S1_PS0_>
    2ed4:	f6 01       	movw	r30, r12
    2ed6:	80 83       	st	Z, r24
    2ed8:	85 e7       	ldi	r24, 0x75	; 117
    2eda:	8a a3       	std	Y+34, r24	; 0x22
    2edc:	19 a2       	std	Y+33, r1	; 0x21
    2ede:	ea 86       	std	Y+10, r14	; 0x0a
    2ee0:	0e 5f       	subi	r16, 0xFE	; 254
    2ee2:	1f 4f       	sbci	r17, 0xFF	; 255
    2ee4:	9e 01       	movw	r18, r28
    2ee6:	26 5f       	subi	r18, 0xF6	; 246
    2ee8:	3f 4f       	sbci	r19, 0xFF	; 255
    2eea:	ae 01       	movw	r20, r28
    2eec:	4e 5d       	subi	r20, 0xDE	; 222
    2eee:	5f 4f       	sbci	r21, 0xFF	; 255
    2ef0:	b5 01       	movw	r22, r10
    2ef2:	8c e3       	ldi	r24, 0x3C	; 60
    2ef4:	91 e0       	ldi	r25, 0x01	; 1
    2ef6:	0e 94 4e 09 	call	0x129c	; 0x129c <_ZN3TWI5writeERKhS1_S1_PS0_>
    2efa:	f6 01       	movw	r30, r12
    2efc:	80 83       	st	Z, r24
    2efe:	9c a2       	std	Y+36, r9	; 0x24
    2f00:	eb a2       	std	Y+35, r14	; 0x23
    2f02:	ea 86       	std	Y+10, r14	; 0x0a
    2f04:	0e 5f       	subi	r16, 0xFE	; 254
    2f06:	1f 4f       	sbci	r17, 0xFF	; 255
    2f08:	9e 01       	movw	r18, r28
    2f0a:	26 5f       	subi	r18, 0xF6	; 246
    2f0c:	3f 4f       	sbci	r19, 0xFF	; 255
    2f0e:	ae 01       	movw	r20, r28
    2f10:	4c 5d       	subi	r20, 0xDC	; 220
    2f12:	5f 4f       	sbci	r21, 0xFF	; 255
    2f14:	b5 01       	movw	r22, r10
    2f16:	8c e3       	ldi	r24, 0x3C	; 60
    2f18:	91 e0       	ldi	r25, 0x01	; 1
    2f1a:	0e 94 4e 09 	call	0x129c	; 0x129c <_ZN3TWI5writeERKhS1_S1_PS0_>
    2f1e:	f6 01       	movw	r30, r12
    2f20:	80 83       	st	Z, r24
    2f22:	8e e4       	ldi	r24, 0x4E	; 78
    2f24:	8e a3       	std	Y+38, r24	; 0x26
    2f26:	8c e2       	ldi	r24, 0x2C	; 44
    2f28:	8d a3       	std	Y+37, r24	; 0x25
    2f2a:	ea 86       	std	Y+10, r14	; 0x0a
    2f2c:	0e 5f       	subi	r16, 0xFE	; 254
    2f2e:	1f 4f       	sbci	r17, 0xFF	; 255
    2f30:	9e 01       	movw	r18, r28
    2f32:	26 5f       	subi	r18, 0xF6	; 246
    2f34:	3f 4f       	sbci	r19, 0xFF	; 255
    2f36:	ae 01       	movw	r20, r28
    2f38:	4a 5d       	subi	r20, 0xDA	; 218
    2f3a:	5f 4f       	sbci	r21, 0xFF	; 255
    2f3c:	b5 01       	movw	r22, r10
    2f3e:	8c e3       	ldi	r24, 0x3C	; 60
    2f40:	91 e0       	ldi	r25, 0x01	; 1
    2f42:	0e 94 4e 09 	call	0x129c	; 0x129c <_ZN3TWI5writeERKhS1_S1_PS0_>
    2f46:	f6 01       	movw	r30, r12
    2f48:	80 83       	st	Z, r24
    2f4a:	f8 e4       	ldi	r31, 0x48	; 72
    2f4c:	f8 a7       	std	Y+40, r31	; 0x28
    2f4e:	1f a2       	std	Y+39, r1	; 0x27
    2f50:	ea 86       	std	Y+10, r14	; 0x0a
    2f52:	0e 5f       	subi	r16, 0xFE	; 254
    2f54:	1f 4f       	sbci	r17, 0xFF	; 255
    2f56:	9e 01       	movw	r18, r28
    2f58:	26 5f       	subi	r18, 0xF6	; 246
    2f5a:	3f 4f       	sbci	r19, 0xFF	; 255
    2f5c:	ae 01       	movw	r20, r28
    2f5e:	48 5d       	subi	r20, 0xD8	; 216
    2f60:	5f 4f       	sbci	r21, 0xFF	; 255
    2f62:	b5 01       	movw	r22, r10
    2f64:	8c e3       	ldi	r24, 0x3C	; 60
    2f66:	91 e0       	ldi	r25, 0x01	; 1
    2f68:	0e 94 4e 09 	call	0x129c	; 0x129c <_ZN3TWI5writeERKhS1_S1_PS0_>
    2f6c:	f6 01       	movw	r30, r12
    2f6e:	80 83       	st	Z, r24
    2f70:	fa a6       	std	Y+42, r15	; 0x2a
    2f72:	f0 e2       	ldi	r31, 0x20	; 32
    2f74:	f9 a7       	std	Y+41, r31	; 0x29
    2f76:	ea 86       	std	Y+10, r14	; 0x0a
    2f78:	0e 5f       	subi	r16, 0xFE	; 254
    2f7a:	1f 4f       	sbci	r17, 0xFF	; 255
    2f7c:	9e 01       	movw	r18, r28
    2f7e:	26 5f       	subi	r18, 0xF6	; 246
    2f80:	3f 4f       	sbci	r19, 0xFF	; 255
    2f82:	ae 01       	movw	r20, r28
    2f84:	46 5d       	subi	r20, 0xD6	; 214
    2f86:	5f 4f       	sbci	r21, 0xFF	; 255
    2f88:	b5 01       	movw	r22, r10
    2f8a:	8c e3       	ldi	r24, 0x3C	; 60
    2f8c:	91 e0       	ldi	r25, 0x01	; 1
    2f8e:	0e 94 4e 09 	call	0x129c	; 0x129c <_ZN3TWI5writeERKhS1_S1_PS0_>
    2f92:	f6 01       	movw	r30, r12
    2f94:	80 83       	st	Z, r24
    2f96:	9c a6       	std	Y+44, r9	; 0x2c
    2f98:	1b a6       	std	Y+43, r1	; 0x2b
    2f9a:	ea 86       	std	Y+10, r14	; 0x0a
    2f9c:	0e 5f       	subi	r16, 0xFE	; 254
    2f9e:	1f 4f       	sbci	r17, 0xFF	; 255
    2fa0:	9e 01       	movw	r18, r28
    2fa2:	26 5f       	subi	r18, 0xF6	; 246
    2fa4:	3f 4f       	sbci	r19, 0xFF	; 255
    2fa6:	ae 01       	movw	r20, r28
    2fa8:	44 5d       	subi	r20, 0xD4	; 212
    2faa:	5f 4f       	sbci	r21, 0xFF	; 255
    2fac:	b5 01       	movw	r22, r10
    2fae:	8c e3       	ldi	r24, 0x3C	; 60
    2fb0:	91 e0       	ldi	r25, 0x01	; 1
    2fb2:	0e 94 4e 09 	call	0x129c	; 0x129c <_ZN3TWI5writeERKhS1_S1_PS0_>
    2fb6:	f6 01       	movw	r30, r12
    2fb8:	80 83       	st	Z, r24
    2fba:	fe a6       	std	Y+46, r15	; 0x2e
    2fbc:	6d a6       	std	Y+45, r6	; 0x2d
    2fbe:	ea 86       	std	Y+10, r14	; 0x0a
    2fc0:	0e 5f       	subi	r16, 0xFE	; 254
    2fc2:	1f 4f       	sbci	r17, 0xFF	; 255
    2fc4:	9e 01       	movw	r18, r28
    2fc6:	26 5f       	subi	r18, 0xF6	; 246
    2fc8:	3f 4f       	sbci	r19, 0xFF	; 255
    2fca:	ae 01       	movw	r20, r28
    2fcc:	42 5d       	subi	r20, 0xD2	; 210
    2fce:	5f 4f       	sbci	r21, 0xFF	; 255
    2fd0:	b5 01       	movw	r22, r10
    2fd2:	8c e3       	ldi	r24, 0x3C	; 60
    2fd4:	91 e0       	ldi	r25, 0x01	; 1
    2fd6:	0e 94 4e 09 	call	0x129c	; 0x129c <_ZN3TWI5writeERKhS1_S1_PS0_>
    2fda:	f6 01       	movw	r30, r12
    2fdc:	80 83       	st	Z, r24
    2fde:	84 e5       	ldi	r24, 0x54	; 84
    2fe0:	88 ab       	std	Y+48, r24	; 0x30
    2fe2:	1f a6       	std	Y+47, r1	; 0x2f
    2fe4:	ea 86       	std	Y+10, r14	; 0x0a
    2fe6:	0e 5f       	subi	r16, 0xFE	; 254
    2fe8:	1f 4f       	sbci	r17, 0xFF	; 255
    2fea:	9e 01       	movw	r18, r28
    2fec:	26 5f       	subi	r18, 0xF6	; 246
    2fee:	3f 4f       	sbci	r19, 0xFF	; 255
    2ff0:	ae 01       	movw	r20, r28
    2ff2:	40 5d       	subi	r20, 0xD0	; 208
    2ff4:	5f 4f       	sbci	r21, 0xFF	; 255
    2ff6:	b5 01       	movw	r22, r10
    2ff8:	8c e3       	ldi	r24, 0x3C	; 60
    2ffa:	91 e0       	ldi	r25, 0x01	; 1
    2ffc:	0e 94 4e 09 	call	0x129c	; 0x129c <_ZN3TWI5writeERKhS1_S1_PS0_>
    3000:	f6 01       	movw	r30, r12
    3002:	80 83       	st	Z, r24
    3004:	f1 e3       	ldi	r31, 0x31	; 49
    3006:	fa ab       	std	Y+50, r31	; 0x32
    3008:	34 e0       	ldi	r19, 0x04	; 4
    300a:	83 2e       	mov	r8, r19
    300c:	89 aa       	std	Y+49, r8	; 0x31
    300e:	ea 86       	std	Y+10, r14	; 0x0a
    3010:	0e 5f       	subi	r16, 0xFE	; 254
    3012:	1f 4f       	sbci	r17, 0xFF	; 255
    3014:	9e 01       	movw	r18, r28
    3016:	26 5f       	subi	r18, 0xF6	; 246
    3018:	3f 4f       	sbci	r19, 0xFF	; 255
    301a:	ae 01       	movw	r20, r28
    301c:	4e 5c       	subi	r20, 0xCE	; 206
    301e:	5f 4f       	sbci	r21, 0xFF	; 255
    3020:	b5 01       	movw	r22, r10
    3022:	8c e3       	ldi	r24, 0x3C	; 60
    3024:	91 e0       	ldi	r25, 0x01	; 1
    3026:	0e 94 4e 09 	call	0x129c	; 0x129c <_ZN3TWI5writeERKhS1_S1_PS0_>
    302a:	f6 01       	movw	r30, r12
    302c:	80 83       	st	Z, r24
    302e:	42 e3       	ldi	r20, 0x32	; 50
    3030:	34 2e       	mov	r3, r20
    3032:	3c aa       	std	Y+52, r3	; 0x34
    3034:	f3 e0       	ldi	r31, 0x03	; 3
    3036:	fb ab       	std	Y+51, r31	; 0x33
    3038:	ea 86       	std	Y+10, r14	; 0x0a
    303a:	0e 5f       	subi	r16, 0xFE	; 254
    303c:	1f 4f       	sbci	r17, 0xFF	; 255
    303e:	9e 01       	movw	r18, r28
    3040:	26 5f       	subi	r18, 0xF6	; 246
    3042:	3f 4f       	sbci	r19, 0xFF	; 255
    3044:	ae 01       	movw	r20, r28
    3046:	4c 5c       	subi	r20, 0xCC	; 204
    3048:	5f 4f       	sbci	r21, 0xFF	; 255
    304a:	b5 01       	movw	r22, r10
    304c:	8c e3       	ldi	r24, 0x3C	; 60
    304e:	91 e0       	ldi	r25, 0x01	; 1
    3050:	0e 94 4e 09 	call	0x129c	; 0x129c <_ZN3TWI5writeERKhS1_S1_PS0_>
    3054:	f6 01       	movw	r30, r12
    3056:	80 83       	st	Z, r24
    3058:	50 e4       	ldi	r21, 0x40	; 64
    305a:	75 2e       	mov	r7, r21
    305c:	7e aa       	std	Y+54, r7	; 0x36
    305e:	83 e8       	ldi	r24, 0x83	; 131
    3060:	8d ab       	std	Y+53, r24	; 0x35
    3062:	ea 86       	std	Y+10, r14	; 0x0a
    3064:	0e 5f       	subi	r16, 0xFE	; 254
    3066:	1f 4f       	sbci	r17, 0xFF	; 255
    3068:	9e 01       	movw	r18, r28
    306a:	26 5f       	subi	r18, 0xF6	; 246
    306c:	3f 4f       	sbci	r19, 0xFF	; 255
    306e:	ae 01       	movw	r20, r28
    3070:	4a 5c       	subi	r20, 0xCA	; 202
    3072:	5f 4f       	sbci	r21, 0xFF	; 255
    3074:	b5 01       	movw	r22, r10
    3076:	8c e3       	ldi	r24, 0x3C	; 60
    3078:	91 e0       	ldi	r25, 0x01	; 1
    307a:	0e 94 4e 09 	call	0x129c	; 0x129c <_ZN3TWI5writeERKhS1_S1_PS0_>
    307e:	f6 01       	movw	r30, r12
    3080:	80 83       	st	Z, r24
    3082:	66 e4       	ldi	r22, 0x46	; 70
    3084:	46 2e       	mov	r4, r22
    3086:	48 ae       	std	Y+56, r4	; 0x38
    3088:	2f aa       	std	Y+55, r2	; 0x37
    308a:	ea 86       	std	Y+10, r14	; 0x0a
    308c:	0e 5f       	subi	r16, 0xFE	; 254
    308e:	1f 4f       	sbci	r17, 0xFF	; 255
    3090:	9e 01       	movw	r18, r28
    3092:	26 5f       	subi	r18, 0xF6	; 246
    3094:	3f 4f       	sbci	r19, 0xFF	; 255
    3096:	ae 01       	movw	r20, r28
    3098:	48 5c       	subi	r20, 0xC8	; 200
    309a:	5f 4f       	sbci	r21, 0xFF	; 255
    309c:	b5 01       	movw	r22, r10
    309e:	8c e3       	ldi	r24, 0x3C	; 60
    30a0:	91 e0       	ldi	r25, 0x01	; 1
    30a2:	0e 94 4e 09 	call	0x129c	; 0x129c <_ZN3TWI5writeERKhS1_S1_PS0_>
    30a6:	f6 01       	movw	r30, r12
    30a8:	80 83       	st	Z, r24
    30aa:	80 e6       	ldi	r24, 0x60	; 96
    30ac:	8a af       	std	Y+58, r24	; 0x3a
    30ae:	19 ae       	std	Y+57, r1	; 0x39
    30b0:	ea 86       	std	Y+10, r14	; 0x0a
    30b2:	0e 5f       	subi	r16, 0xFE	; 254
    30b4:	1f 4f       	sbci	r17, 0xFF	; 255
    30b6:	9e 01       	movw	r18, r28
    30b8:	26 5f       	subi	r18, 0xF6	; 246
    30ba:	3f 4f       	sbci	r19, 0xFF	; 255
    30bc:	ae 01       	movw	r20, r28
    30be:	46 5c       	subi	r20, 0xC6	; 198
    30c0:	5f 4f       	sbci	r21, 0xFF	; 255
    30c2:	b5 01       	movw	r22, r10
    30c4:	8c e3       	ldi	r24, 0x3C	; 60
    30c6:	91 e0       	ldi	r25, 0x01	; 1
    30c8:	0e 94 4e 09 	call	0x129c	; 0x129c <_ZN3TWI5writeERKhS1_S1_PS0_>
    30cc:	f6 01       	movw	r30, r12
    30ce:	80 83       	st	Z, r24
    30d0:	87 e2       	ldi	r24, 0x27	; 39
    30d2:	8c af       	std	Y+60, r24	; 0x3c
    30d4:	1b ae       	std	Y+59, r1	; 0x3b
    30d6:	ea 86       	std	Y+10, r14	; 0x0a
    30d8:	0e 5f       	subi	r16, 0xFE	; 254
    30da:	1f 4f       	sbci	r17, 0xFF	; 255
    30dc:	9e 01       	movw	r18, r28
    30de:	26 5f       	subi	r18, 0xF6	; 246
    30e0:	3f 4f       	sbci	r19, 0xFF	; 255
    30e2:	ae 01       	movw	r20, r28
    30e4:	44 5c       	subi	r20, 0xC4	; 196
    30e6:	5f 4f       	sbci	r21, 0xFF	; 255
    30e8:	b5 01       	movw	r22, r10
    30ea:	8c e3       	ldi	r24, 0x3C	; 60
    30ec:	91 e0       	ldi	r25, 0x01	; 1
    30ee:	0e 94 4e 09 	call	0x129c	; 0x129c <_ZN3TWI5writeERKhS1_S1_PS0_>
    30f2:	f6 01       	movw	r30, r12
    30f4:	80 83       	st	Z, r24
    30f6:	80 e5       	ldi	r24, 0x50	; 80
    30f8:	8e af       	std	Y+62, r24	; 0x3e
    30fa:	5d ae       	std	Y+61, r5	; 0x3d
    30fc:	ea 86       	std	Y+10, r14	; 0x0a
    30fe:	0e 5f       	subi	r16, 0xFE	; 254
    3100:	1f 4f       	sbci	r17, 0xFF	; 255
    3102:	9e 01       	movw	r18, r28
    3104:	26 5f       	subi	r18, 0xF6	; 246
    3106:	3f 4f       	sbci	r19, 0xFF	; 255
    3108:	ae 01       	movw	r20, r28
    310a:	42 5c       	subi	r20, 0xC2	; 194
    310c:	5f 4f       	sbci	r21, 0xFF	; 255
    310e:	b5 01       	movw	r22, r10
    3110:	8c e3       	ldi	r24, 0x3C	; 60
    3112:	91 e0       	ldi	r25, 0x01	; 1
    3114:	0e 94 4e 09 	call	0x129c	; 0x129c <_ZN3TWI5writeERKhS1_S1_PS0_>
    3118:	f6 01       	movw	r30, r12
    311a:	80 83       	st	Z, r24
    311c:	81 e5       	ldi	r24, 0x51	; 81
    311e:	21 96       	adiw	r28, 0x01	; 1
    3120:	8f af       	std	Y+63, r24	; 0x3f
    3122:	21 97       	sbiw	r28, 0x01	; 1
    3124:	1f ae       	std	Y+63, r1	; 0x3f
    3126:	ea 86       	std	Y+10, r14	; 0x0a
    3128:	0e 5f       	subi	r16, 0xFE	; 254
    312a:	1f 4f       	sbci	r17, 0xFF	; 255
    312c:	9e 01       	movw	r18, r28
    312e:	26 5f       	subi	r18, 0xF6	; 246
    3130:	3f 4f       	sbci	r19, 0xFF	; 255
    3132:	ae 01       	movw	r20, r28
    3134:	40 5c       	subi	r20, 0xC0	; 192
    3136:	5f 4f       	sbci	r21, 0xFF	; 255
    3138:	b5 01       	movw	r22, r10
    313a:	8c e3       	ldi	r24, 0x3C	; 60
    313c:	91 e0       	ldi	r25, 0x01	; 1
    313e:	0e 94 4e 09 	call	0x129c	; 0x129c <_ZN3TWI5writeERKhS1_S1_PS0_>
    3142:	f6 01       	movw	r30, r12
    3144:	80 83       	st	Z, r24
    3146:	82 e5       	ldi	r24, 0x52	; 82
    3148:	23 96       	adiw	r28, 0x03	; 3
    314a:	8f af       	std	Y+63, r24	; 0x3f
    314c:	23 97       	sbiw	r28, 0x03	; 3
    314e:	86 e9       	ldi	r24, 0x96	; 150
    3150:	22 96       	adiw	r28, 0x02	; 2
    3152:	8f af       	std	Y+63, r24	; 0x3f
    3154:	22 97       	sbiw	r28, 0x02	; 2
    3156:	ea 86       	std	Y+10, r14	; 0x0a
    3158:	0e 5f       	subi	r16, 0xFE	; 254
    315a:	1f 4f       	sbci	r17, 0xFF	; 255
    315c:	9e 01       	movw	r18, r28
    315e:	26 5f       	subi	r18, 0xF6	; 246
    3160:	3f 4f       	sbci	r19, 0xFF	; 255
    3162:	ae 01       	movw	r20, r28
    3164:	4e 5b       	subi	r20, 0xBE	; 190
    3166:	5f 4f       	sbci	r21, 0xFF	; 255
    3168:	b5 01       	movw	r22, r10
    316a:	8c e3       	ldi	r24, 0x3C	; 60
    316c:	91 e0       	ldi	r25, 0x01	; 1
    316e:	0e 94 4e 09 	call	0x129c	; 0x129c <_ZN3TWI5writeERKhS1_S1_PS0_>
    3172:	f6 01       	movw	r30, r12
    3174:	80 83       	st	Z, r24
    3176:	86 e5       	ldi	r24, 0x56	; 86
    3178:	25 96       	adiw	r28, 0x05	; 5
    317a:	8f af       	std	Y+63, r24	; 0x3f
    317c:	25 97       	sbiw	r28, 0x05	; 5
    317e:	f8 e0       	ldi	r31, 0x08	; 8
    3180:	24 96       	adiw	r28, 0x04	; 4
    3182:	ff af       	std	Y+63, r31	; 0x3f
    3184:	24 97       	sbiw	r28, 0x04	; 4
    3186:	ea 86       	std	Y+10, r14	; 0x0a
    3188:	0e 5f       	subi	r16, 0xFE	; 254
    318a:	1f 4f       	sbci	r17, 0xFF	; 255
    318c:	9e 01       	movw	r18, r28
    318e:	26 5f       	subi	r18, 0xF6	; 246
    3190:	3f 4f       	sbci	r19, 0xFF	; 255
    3192:	ae 01       	movw	r20, r28
    3194:	4c 5b       	subi	r20, 0xBC	; 188
    3196:	5f 4f       	sbci	r21, 0xFF	; 255
    3198:	b5 01       	movw	r22, r10
    319a:	8c e3       	ldi	r24, 0x3C	; 60
    319c:	91 e0       	ldi	r25, 0x01	; 1
    319e:	0e 94 4e 09 	call	0x129c	; 0x129c <_ZN3TWI5writeERKhS1_S1_PS0_>
    31a2:	f6 01       	movw	r30, r12
    31a4:	80 83       	st	Z, r24
    31a6:	87 e5       	ldi	r24, 0x57	; 87
    31a8:	27 96       	adiw	r28, 0x07	; 7
    31aa:	8f af       	std	Y+63, r24	; 0x3f
    31ac:	27 97       	sbiw	r28, 0x07	; 7
    31ae:	26 96       	adiw	r28, 0x06	; 6
    31b0:	ff ae       	std	Y+63, r15	; 0x3f
    31b2:	26 97       	sbiw	r28, 0x06	; 6
    31b4:	ea 86       	std	Y+10, r14	; 0x0a
    31b6:	0e 5f       	subi	r16, 0xFE	; 254
    31b8:	1f 4f       	sbci	r17, 0xFF	; 255
    31ba:	9e 01       	movw	r18, r28
    31bc:	26 5f       	subi	r18, 0xF6	; 246
    31be:	3f 4f       	sbci	r19, 0xFF	; 255
    31c0:	ae 01       	movw	r20, r28
    31c2:	4a 5b       	subi	r20, 0xBA	; 186
    31c4:	5f 4f       	sbci	r21, 0xFF	; 255
    31c6:	b5 01       	movw	r22, r10
    31c8:	8c e3       	ldi	r24, 0x3C	; 60
    31ca:	91 e0       	ldi	r25, 0x01	; 1
    31cc:	0e 94 4e 09 	call	0x129c	; 0x129c <_ZN3TWI5writeERKhS1_S1_PS0_>
    31d0:	f6 01       	movw	r30, r12
    31d2:	80 83       	st	Z, r24
    31d4:	81 e6       	ldi	r24, 0x61	; 97
    31d6:	29 96       	adiw	r28, 0x09	; 9
    31d8:	8f af       	std	Y+63, r24	; 0x3f
    31da:	29 97       	sbiw	r28, 0x09	; 9
    31dc:	28 96       	adiw	r28, 0x08	; 8
    31de:	1f ae       	std	Y+63, r1	; 0x3f
    31e0:	28 97       	sbiw	r28, 0x08	; 8
    31e2:	ea 86       	std	Y+10, r14	; 0x0a
    31e4:	0e 5f       	subi	r16, 0xFE	; 254
    31e6:	1f 4f       	sbci	r17, 0xFF	; 255
    31e8:	9e 01       	movw	r18, r28
    31ea:	26 5f       	subi	r18, 0xF6	; 246
    31ec:	3f 4f       	sbci	r19, 0xFF	; 255
    31ee:	ae 01       	movw	r20, r28
    31f0:	48 5b       	subi	r20, 0xB8	; 184
    31f2:	5f 4f       	sbci	r21, 0xFF	; 255
    31f4:	b5 01       	movw	r22, r10
    31f6:	8c e3       	ldi	r24, 0x3C	; 60
    31f8:	91 e0       	ldi	r25, 0x01	; 1
    31fa:	0e 94 4e 09 	call	0x129c	; 0x129c <_ZN3TWI5writeERKhS1_S1_PS0_>
    31fe:	f6 01       	movw	r30, r12
    3200:	80 83       	st	Z, r24
    3202:	82 e6       	ldi	r24, 0x62	; 98
    3204:	2b 96       	adiw	r28, 0x0b	; 11
    3206:	8f af       	std	Y+63, r24	; 0x3f
    3208:	2b 97       	sbiw	r28, 0x0b	; 11
    320a:	2a 96       	adiw	r28, 0x0a	; 10
    320c:	1f ae       	std	Y+63, r1	; 0x3f
    320e:	2a 97       	sbiw	r28, 0x0a	; 10
    3210:	ea 86       	std	Y+10, r14	; 0x0a
    3212:	0e 5f       	subi	r16, 0xFE	; 254
    3214:	1f 4f       	sbci	r17, 0xFF	; 255
    3216:	9e 01       	movw	r18, r28
    3218:	26 5f       	subi	r18, 0xF6	; 246
    321a:	3f 4f       	sbci	r19, 0xFF	; 255
    321c:	ae 01       	movw	r20, r28
    321e:	46 5b       	subi	r20, 0xB6	; 182
    3220:	5f 4f       	sbci	r21, 0xFF	; 255
    3222:	b5 01       	movw	r22, r10
    3224:	8c e3       	ldi	r24, 0x3C	; 60
    3226:	91 e0       	ldi	r25, 0x01	; 1
    3228:	0e 94 4e 09 	call	0x129c	; 0x129c <_ZN3TWI5writeERKhS1_S1_PS0_>
    322c:	f6 01       	movw	r30, r12
    322e:	80 83       	st	Z, r24
    3230:	84 e6       	ldi	r24, 0x64	; 100
    3232:	2d 96       	adiw	r28, 0x0d	; 13
    3234:	8f af       	std	Y+63, r24	; 0x3f
    3236:	2d 97       	sbiw	r28, 0x0d	; 13
    3238:	2c 96       	adiw	r28, 0x0c	; 12
    323a:	1f ae       	std	Y+63, r1	; 0x3f
    323c:	2c 97       	sbiw	r28, 0x0c	; 12
    323e:	ea 86       	std	Y+10, r14	; 0x0a
    3240:	0e 5f       	subi	r16, 0xFE	; 254
    3242:	1f 4f       	sbci	r17, 0xFF	; 255
    3244:	9e 01       	movw	r18, r28
    3246:	26 5f       	subi	r18, 0xF6	; 246
    3248:	3f 4f       	sbci	r19, 0xFF	; 255
    324a:	ae 01       	movw	r20, r28
    324c:	44 5b       	subi	r20, 0xB4	; 180
    324e:	5f 4f       	sbci	r21, 0xFF	; 255
    3250:	b5 01       	movw	r22, r10
    3252:	8c e3       	ldi	r24, 0x3C	; 60
    3254:	91 e0       	ldi	r25, 0x01	; 1
    3256:	0e 94 4e 09 	call	0x129c	; 0x129c <_ZN3TWI5writeERKhS1_S1_PS0_>
    325a:	f6 01       	movw	r30, r12
    325c:	80 83       	st	Z, r24
    325e:	85 e6       	ldi	r24, 0x65	; 101
    3260:	2f 96       	adiw	r28, 0x0f	; 15
    3262:	8f af       	std	Y+63, r24	; 0x3f
    3264:	2f 97       	sbiw	r28, 0x0f	; 15
    3266:	2e 96       	adiw	r28, 0x0e	; 14
    3268:	1f ae       	std	Y+63, r1	; 0x3f
    326a:	2e 97       	sbiw	r28, 0x0e	; 14
    326c:	ea 86       	std	Y+10, r14	; 0x0a
    326e:	0e 5f       	subi	r16, 0xFE	; 254
    3270:	1f 4f       	sbci	r17, 0xFF	; 255
    3272:	9e 01       	movw	r18, r28
    3274:	26 5f       	subi	r18, 0xF6	; 246
    3276:	3f 4f       	sbci	r19, 0xFF	; 255
    3278:	ae 01       	movw	r20, r28
    327a:	42 5b       	subi	r20, 0xB2	; 178
    327c:	5f 4f       	sbci	r21, 0xFF	; 255
    327e:	b5 01       	movw	r22, r10
    3280:	8c e3       	ldi	r24, 0x3C	; 60
    3282:	91 e0       	ldi	r25, 0x01	; 1
    3284:	0e 94 4e 09 	call	0x129c	; 0x129c <_ZN3TWI5writeERKhS1_S1_PS0_>
    3288:	f6 01       	movw	r30, r12
    328a:	80 83       	st	Z, r24
    328c:	86 e6       	ldi	r24, 0x66	; 102
    328e:	61 96       	adiw	r28, 0x11	; 17
    3290:	8f af       	std	Y+63, r24	; 0x3f
    3292:	61 97       	sbiw	r28, 0x11	; 17
    3294:	80 ea       	ldi	r24, 0xA0	; 160
    3296:	60 96       	adiw	r28, 0x10	; 16
    3298:	8f af       	std	Y+63, r24	; 0x3f
    329a:	60 97       	sbiw	r28, 0x10	; 16
    329c:	ea 86       	std	Y+10, r14	; 0x0a
    329e:	0e 5f       	subi	r16, 0xFE	; 254
    32a0:	1f 4f       	sbci	r17, 0xFF	; 255
    32a2:	9e 01       	movw	r18, r28
    32a4:	26 5f       	subi	r18, 0xF6	; 246
    32a6:	3f 4f       	sbci	r19, 0xFF	; 255
    32a8:	ae 01       	movw	r20, r28
    32aa:	40 5b       	subi	r20, 0xB0	; 176
    32ac:	5f 4f       	sbci	r21, 0xFF	; 255
    32ae:	b5 01       	movw	r22, r10
    32b0:	8c e3       	ldi	r24, 0x3C	; 60
    32b2:	91 e0       	ldi	r25, 0x01	; 1
    32b4:	0e 94 4e 09 	call	0x129c	; 0x129c <_ZN3TWI5writeERKhS1_S1_PS0_>
    32b8:	f6 01       	movw	r30, r12
    32ba:	80 83       	st	Z, r24
    32bc:	63 96       	adiw	r28, 0x13	; 19
    32be:	9f ae       	std	Y+63, r9	; 0x3f
    32c0:	63 97       	sbiw	r28, 0x13	; 19
    32c2:	62 96       	adiw	r28, 0x12	; 18
    32c4:	ef ae       	std	Y+63, r14	; 0x3f
    32c6:	62 97       	sbiw	r28, 0x12	; 18
    32c8:	ea 86       	std	Y+10, r14	; 0x0a
    32ca:	0e 5f       	subi	r16, 0xFE	; 254
    32cc:	1f 4f       	sbci	r17, 0xFF	; 255
    32ce:	9e 01       	movw	r18, r28
    32d0:	26 5f       	subi	r18, 0xF6	; 246
    32d2:	3f 4f       	sbci	r19, 0xFF	; 255
    32d4:	ae 01       	movw	r20, r28
    32d6:	4e 5a       	subi	r20, 0xAE	; 174
    32d8:	5f 4f       	sbci	r21, 0xFF	; 255
    32da:	b5 01       	movw	r22, r10
    32dc:	8c e3       	ldi	r24, 0x3C	; 60
    32de:	91 e0       	ldi	r25, 0x01	; 1
    32e0:	0e 94 4e 09 	call	0x129c	; 0x129c <_ZN3TWI5writeERKhS1_S1_PS0_>
    32e4:	f6 01       	movw	r30, r12
    32e6:	80 83       	st	Z, r24
    32e8:	82 e2       	ldi	r24, 0x22	; 34
    32ea:	65 96       	adiw	r28, 0x15	; 21
    32ec:	8f af       	std	Y+63, r24	; 0x3f
    32ee:	65 97       	sbiw	r28, 0x15	; 21
    32f0:	64 96       	adiw	r28, 0x14	; 20
    32f2:	3f ae       	std	Y+63, r3	; 0x3f
    32f4:	64 97       	sbiw	r28, 0x14	; 20
    32f6:	ea 86       	std	Y+10, r14	; 0x0a
    32f8:	0e 5f       	subi	r16, 0xFE	; 254
    32fa:	1f 4f       	sbci	r17, 0xFF	; 255
    32fc:	9e 01       	movw	r18, r28
    32fe:	26 5f       	subi	r18, 0xF6	; 246
    3300:	3f 4f       	sbci	r19, 0xFF	; 255
    3302:	ae 01       	movw	r20, r28
    3304:	4c 5a       	subi	r20, 0xAC	; 172
    3306:	5f 4f       	sbci	r21, 0xFF	; 255
    3308:	b5 01       	movw	r22, r10
    330a:	8c e3       	ldi	r24, 0x3C	; 60
    330c:	91 e0       	ldi	r25, 0x01	; 1
    330e:	0e 94 4e 09 	call	0x129c	; 0x129c <_ZN3TWI5writeERKhS1_S1_PS0_>
    3312:	f6 01       	movw	r30, r12
    3314:	80 83       	st	Z, r24
    3316:	f7 e4       	ldi	r31, 0x47	; 71
    3318:	67 96       	adiw	r28, 0x17	; 23
    331a:	ff af       	std	Y+63, r31	; 0x3f
    331c:	67 97       	sbiw	r28, 0x17	; 23
    331e:	84 e1       	ldi	r24, 0x14	; 20
    3320:	66 96       	adiw	r28, 0x16	; 22
    3322:	8f af       	std	Y+63, r24	; 0x3f
    3324:	66 97       	sbiw	r28, 0x16	; 22
    3326:	ea 86       	std	Y+10, r14	; 0x0a
    3328:	0e 5f       	subi	r16, 0xFE	; 254
    332a:	1f 4f       	sbci	r17, 0xFF	; 255
    332c:	9e 01       	movw	r18, r28
    332e:	26 5f       	subi	r18, 0xF6	; 246
    3330:	3f 4f       	sbci	r19, 0xFF	; 255
    3332:	ae 01       	movw	r20, r28
    3334:	4a 5a       	subi	r20, 0xAA	; 170
    3336:	5f 4f       	sbci	r21, 0xFF	; 255
    3338:	b5 01       	movw	r22, r10
    333a:	8c e3       	ldi	r24, 0x3C	; 60
    333c:	91 e0       	ldi	r25, 0x01	; 1
    333e:	0e 94 4e 09 	call	0x129c	; 0x129c <_ZN3TWI5writeERKhS1_S1_PS0_>
    3342:	f6 01       	movw	r30, r12
    3344:	80 83       	st	Z, r24
    3346:	89 e4       	ldi	r24, 0x49	; 73
    3348:	69 96       	adiw	r28, 0x19	; 25
    334a:	8f af       	std	Y+63, r24	; 0x3f
    334c:	69 97       	sbiw	r28, 0x19	; 25
    334e:	68 96       	adiw	r28, 0x18	; 24
    3350:	9f ae       	std	Y+63, r9	; 0x3f
    3352:	68 97       	sbiw	r28, 0x18	; 24
    3354:	ea 86       	std	Y+10, r14	; 0x0a
    3356:	0e 5f       	subi	r16, 0xFE	; 254
    3358:	1f 4f       	sbci	r17, 0xFF	; 255
    335a:	9e 01       	movw	r18, r28
    335c:	26 5f       	subi	r18, 0xF6	; 246
    335e:	3f 4f       	sbci	r19, 0xFF	; 255
    3360:	ae 01       	movw	r20, r28
    3362:	48 5a       	subi	r20, 0xA8	; 168
    3364:	5f 4f       	sbci	r21, 0xFF	; 255
    3366:	b5 01       	movw	r22, r10
    3368:	8c e3       	ldi	r24, 0x3C	; 60
    336a:	91 e0       	ldi	r25, 0x01	; 1
    336c:	0e 94 4e 09 	call	0x129c	; 0x129c <_ZN3TWI5writeERKhS1_S1_PS0_>
    3370:	f6 01       	movw	r30, r12
    3372:	80 83       	st	Z, r24
    3374:	8a e4       	ldi	r24, 0x4A	; 74
    3376:	6b 96       	adiw	r28, 0x1b	; 27
    3378:	8f af       	std	Y+63, r24	; 0x3f
    337a:	6b 97       	sbiw	r28, 0x1b	; 27
    337c:	6a 96       	adiw	r28, 0x1a	; 26
    337e:	1f ae       	std	Y+63, r1	; 0x3f
    3380:	6a 97       	sbiw	r28, 0x1a	; 26
    3382:	ea 86       	std	Y+10, r14	; 0x0a
    3384:	0e 5f       	subi	r16, 0xFE	; 254
    3386:	1f 4f       	sbci	r17, 0xFF	; 255
    3388:	9e 01       	movw	r18, r28
    338a:	26 5f       	subi	r18, 0xF6	; 246
    338c:	3f 4f       	sbci	r19, 0xFF	; 255
    338e:	ae 01       	movw	r20, r28
    3390:	46 5a       	subi	r20, 0xA6	; 166
    3392:	5f 4f       	sbci	r21, 0xFF	; 255
    3394:	b5 01       	movw	r22, r10
    3396:	8c e3       	ldi	r24, 0x3C	; 60
    3398:	91 e0       	ldi	r25, 0x01	; 1
    339a:	0e 94 4e 09 	call	0x129c	; 0x129c <_ZN3TWI5writeERKhS1_S1_PS0_>
    339e:	f6 01       	movw	r30, r12
    33a0:	80 83       	st	Z, r24
    33a2:	6d 96       	adiw	r28, 0x1d	; 29
    33a4:	9f ae       	std	Y+63, r9	; 0x3f
    33a6:	6d 97       	sbiw	r28, 0x1d	; 29
    33a8:	6c 96       	adiw	r28, 0x1c	; 28
    33aa:	1f ae       	std	Y+63, r1	; 0x3f
    33ac:	6c 97       	sbiw	r28, 0x1c	; 28
    33ae:	ea 86       	std	Y+10, r14	; 0x0a
    33b0:	0e 5f       	subi	r16, 0xFE	; 254
    33b2:	1f 4f       	sbci	r17, 0xFF	; 255
    33b4:	9e 01       	movw	r18, r28
    33b6:	26 5f       	subi	r18, 0xF6	; 246
    33b8:	3f 4f       	sbci	r19, 0xFF	; 255
    33ba:	ae 01       	movw	r20, r28
    33bc:	44 5a       	subi	r20, 0xA4	; 164
    33be:	5f 4f       	sbci	r21, 0xFF	; 255
    33c0:	b5 01       	movw	r22, r10
    33c2:	8c e3       	ldi	r24, 0x3C	; 60
    33c4:	91 e0       	ldi	r25, 0x01	; 1
    33c6:	0e 94 4e 09 	call	0x129c	; 0x129c <_ZN3TWI5writeERKhS1_S1_PS0_>
    33ca:	f6 01       	movw	r30, r12
    33cc:	80 83       	st	Z, r24
    33ce:	8a e7       	ldi	r24, 0x7A	; 122
    33d0:	6f 96       	adiw	r28, 0x1f	; 31
    33d2:	8f af       	std	Y+63, r24	; 0x3f
    33d4:	6f 97       	sbiw	r28, 0x1f	; 31
    33d6:	fa e0       	ldi	r31, 0x0A	; 10
    33d8:	6e 96       	adiw	r28, 0x1e	; 30
    33da:	ff af       	std	Y+63, r31	; 0x3f
    33dc:	6e 97       	sbiw	r28, 0x1e	; 30
    33de:	ea 86       	std	Y+10, r14	; 0x0a
    33e0:	0e 5f       	subi	r16, 0xFE	; 254
    33e2:	1f 4f       	sbci	r17, 0xFF	; 255
    33e4:	9e 01       	movw	r18, r28
    33e6:	26 5f       	subi	r18, 0xF6	; 246
    33e8:	3f 4f       	sbci	r19, 0xFF	; 255
    33ea:	ae 01       	movw	r20, r28
    33ec:	42 5a       	subi	r20, 0xA2	; 162
    33ee:	5f 4f       	sbci	r21, 0xFF	; 255
    33f0:	b5 01       	movw	r22, r10
    33f2:	8c e3       	ldi	r24, 0x3C	; 60
    33f4:	91 e0       	ldi	r25, 0x01	; 1
    33f6:	0e 94 4e 09 	call	0x129c	; 0x129c <_ZN3TWI5writeERKhS1_S1_PS0_>
    33fa:	f6 01       	movw	r30, r12
    33fc:	80 83       	st	Z, r24
    33fe:	8b e7       	ldi	r24, 0x7B	; 123
    3400:	a1 96       	adiw	r28, 0x21	; 33
    3402:	8f af       	std	Y+63, r24	; 0x3f
    3404:	a1 97       	sbiw	r28, 0x21	; 33
    3406:	a0 96       	adiw	r28, 0x20	; 32
    3408:	1f ae       	std	Y+63, r1	; 0x3f
    340a:	a0 97       	sbiw	r28, 0x20	; 32
    340c:	ea 86       	std	Y+10, r14	; 0x0a
    340e:	0e 5f       	subi	r16, 0xFE	; 254
    3410:	1f 4f       	sbci	r17, 0xFF	; 255
    3412:	9e 01       	movw	r18, r28
    3414:	26 5f       	subi	r18, 0xF6	; 246
    3416:	3f 4f       	sbci	r19, 0xFF	; 255
    3418:	ae 01       	movw	r20, r28
    341a:	40 5a       	subi	r20, 0xA0	; 160
    341c:	5f 4f       	sbci	r21, 0xFF	; 255
    341e:	b5 01       	movw	r22, r10
    3420:	8c e3       	ldi	r24, 0x3C	; 60
    3422:	91 e0       	ldi	r25, 0x01	; 1
    3424:	0e 94 4e 09 	call	0x129c	; 0x129c <_ZN3TWI5writeERKhS1_S1_PS0_>
    3428:	f6 01       	movw	r30, r12
    342a:	80 83       	st	Z, r24
    342c:	88 e7       	ldi	r24, 0x78	; 120
    342e:	a3 96       	adiw	r28, 0x23	; 35
    3430:	8f af       	std	Y+63, r24	; 0x3f
    3432:	a3 97       	sbiw	r28, 0x23	; 35
    3434:	81 e2       	ldi	r24, 0x21	; 33
    3436:	a2 96       	adiw	r28, 0x22	; 34
    3438:	8f af       	std	Y+63, r24	; 0x3f
    343a:	a2 97       	sbiw	r28, 0x22	; 34
    343c:	ea 86       	std	Y+10, r14	; 0x0a
    343e:	0e 5f       	subi	r16, 0xFE	; 254
    3440:	1f 4f       	sbci	r17, 0xFF	; 255
    3442:	9e 01       	movw	r18, r28
    3444:	26 5f       	subi	r18, 0xF6	; 246
    3446:	3f 4f       	sbci	r19, 0xFF	; 255
    3448:	ae 01       	movw	r20, r28
    344a:	4e 59       	subi	r20, 0x9E	; 158
    344c:	5f 4f       	sbci	r21, 0xFF	; 255
    344e:	b5 01       	movw	r22, r10
    3450:	8c e3       	ldi	r24, 0x3C	; 60
    3452:	91 e0       	ldi	r25, 0x01	; 1
    3454:	0e 94 4e 09 	call	0x129c	; 0x129c <_ZN3TWI5writeERKhS1_S1_PS0_>
    3458:	f6 01       	movw	r30, r12
    345a:	80 83       	st	Z, r24
    345c:	a5 96       	adiw	r28, 0x25	; 37
    345e:	9f ae       	std	Y+63, r9	; 0x3f
    3460:	a5 97       	sbiw	r28, 0x25	; 37
    3462:	a4 96       	adiw	r28, 0x24	; 36
    3464:	ef ae       	std	Y+63, r14	; 0x3f
    3466:	a4 97       	sbiw	r28, 0x24	; 36
    3468:	ea 86       	std	Y+10, r14	; 0x0a
    346a:	0e 5f       	subi	r16, 0xFE	; 254
    346c:	1f 4f       	sbci	r17, 0xFF	; 255
    346e:	9e 01       	movw	r18, r28
    3470:	26 5f       	subi	r18, 0xF6	; 246
    3472:	3f 4f       	sbci	r19, 0xFF	; 255
    3474:	ae 01       	movw	r20, r28
    3476:	4c 59       	subi	r20, 0x9C	; 156
    3478:	5f 4f       	sbci	r21, 0xFF	; 255
    347a:	b5 01       	movw	r22, r10
    347c:	8c e3       	ldi	r24, 0x3C	; 60
    347e:	91 e0       	ldi	r25, 0x01	; 1
    3480:	0e 94 4e 09 	call	0x129c	; 0x129c <_ZN3TWI5writeERKhS1_S1_PS0_>
    3484:	f6 01       	movw	r30, r12
    3486:	80 83       	st	Z, r24
    3488:	83 e2       	ldi	r24, 0x23	; 35
    348a:	a7 96       	adiw	r28, 0x27	; 39
    348c:	8f af       	std	Y+63, r24	; 0x3f
    348e:	a7 97       	sbiw	r28, 0x27	; 39
    3490:	74 e3       	ldi	r23, 0x34	; 52
    3492:	37 2e       	mov	r3, r23
    3494:	a6 96       	adiw	r28, 0x26	; 38
    3496:	3f ae       	std	Y+63, r3	; 0x3f
    3498:	a6 97       	sbiw	r28, 0x26	; 38
    349a:	ea 86       	std	Y+10, r14	; 0x0a
    349c:	0e 5f       	subi	r16, 0xFE	; 254
    349e:	1f 4f       	sbci	r17, 0xFF	; 255
    34a0:	9e 01       	movw	r18, r28
    34a2:	26 5f       	subi	r18, 0xF6	; 246
    34a4:	3f 4f       	sbci	r19, 0xFF	; 255
    34a6:	ae 01       	movw	r20, r28
    34a8:	4a 59       	subi	r20, 0x9A	; 154
    34aa:	5f 4f       	sbci	r21, 0xFF	; 255
    34ac:	b5 01       	movw	r22, r10
    34ae:	8c e3       	ldi	r24, 0x3C	; 60
    34b0:	91 e0       	ldi	r25, 0x01	; 1
    34b2:	0e 94 4e 09 	call	0x129c	; 0x129c <_ZN3TWI5writeERKhS1_S1_PS0_>
    34b6:	f6 01       	movw	r30, r12
    34b8:	80 83       	st	Z, r24
    34ba:	82 e4       	ldi	r24, 0x42	; 66
    34bc:	a9 96       	adiw	r28, 0x29	; 41
    34be:	8f af       	std	Y+63, r24	; 0x3f
    34c0:	a9 97       	sbiw	r28, 0x29	; 41
    34c2:	a8 96       	adiw	r28, 0x28	; 40
    34c4:	1f ae       	std	Y+63, r1	; 0x3f
    34c6:	a8 97       	sbiw	r28, 0x28	; 40
    34c8:	ea 86       	std	Y+10, r14	; 0x0a
    34ca:	0e 5f       	subi	r16, 0xFE	; 254
    34cc:	1f 4f       	sbci	r17, 0xFF	; 255
    34ce:	9e 01       	movw	r18, r28
    34d0:	26 5f       	subi	r18, 0xF6	; 246
    34d2:	3f 4f       	sbci	r19, 0xFF	; 255
    34d4:	ae 01       	movw	r20, r28
    34d6:	48 59       	subi	r20, 0x98	; 152
    34d8:	5f 4f       	sbci	r21, 0xFF	; 255
    34da:	b5 01       	movw	r22, r10
    34dc:	8c e3       	ldi	r24, 0x3C	; 60
    34de:	91 e0       	ldi	r25, 0x01	; 1
    34e0:	0e 94 4e 09 	call	0x129c	; 0x129c <_ZN3TWI5writeERKhS1_S1_PS0_>
    34e4:	f6 01       	movw	r30, r12
    34e6:	80 83       	st	Z, r24
    34e8:	e4 e4       	ldi	r30, 0x44	; 68
    34ea:	fe 2e       	mov	r15, r30
    34ec:	ab 96       	adiw	r28, 0x2b	; 43
    34ee:	ff ae       	std	Y+63, r15	; 0x3f
    34f0:	ab 97       	sbiw	r28, 0x2b	; 43
    34f2:	aa 96       	adiw	r28, 0x2a	; 42
    34f4:	9f ae       	std	Y+63, r9	; 0x3f
    34f6:	aa 97       	sbiw	r28, 0x2a	; 42
    34f8:	ea 86       	std	Y+10, r14	; 0x0a
    34fa:	0e 5f       	subi	r16, 0xFE	; 254
    34fc:	1f 4f       	sbci	r17, 0xFF	; 255
    34fe:	9e 01       	movw	r18, r28
    3500:	26 5f       	subi	r18, 0xF6	; 246
    3502:	3f 4f       	sbci	r19, 0xFF	; 255
    3504:	ae 01       	movw	r20, r28
    3506:	46 59       	subi	r20, 0x96	; 150
    3508:	5f 4f       	sbci	r21, 0xFF	; 255
    350a:	b5 01       	movw	r22, r10
    350c:	8c e3       	ldi	r24, 0x3C	; 60
    350e:	91 e0       	ldi	r25, 0x01	; 1
    3510:	0e 94 4e 09 	call	0x129c	; 0x129c <_ZN3TWI5writeERKhS1_S1_PS0_>
    3514:	f6 01       	movw	r30, r12
    3516:	80 83       	st	Z, r24
    3518:	f5 e4       	ldi	r31, 0x45	; 69
    351a:	2f 2e       	mov	r2, r31
    351c:	ad 96       	adiw	r28, 0x2d	; 45
    351e:	2f ae       	std	Y+63, r2	; 0x3f
    3520:	ad 97       	sbiw	r28, 0x2d	; 45
    3522:	86 e2       	ldi	r24, 0x26	; 38
    3524:	ac 96       	adiw	r28, 0x2c	; 44
    3526:	8f af       	std	Y+63, r24	; 0x3f
    3528:	ac 97       	sbiw	r28, 0x2c	; 44
    352a:	ea 86       	std	Y+10, r14	; 0x0a
    352c:	0e 5f       	subi	r16, 0xFE	; 254
    352e:	1f 4f       	sbci	r17, 0xFF	; 255
    3530:	9e 01       	movw	r18, r28
    3532:	26 5f       	subi	r18, 0xF6	; 246
    3534:	3f 4f       	sbci	r19, 0xFF	; 255
    3536:	ae 01       	movw	r20, r28
    3538:	44 59       	subi	r20, 0x94	; 148
    353a:	5f 4f       	sbci	r21, 0xFF	; 255
    353c:	b5 01       	movw	r22, r10
    353e:	8c e3       	ldi	r24, 0x3C	; 60
    3540:	91 e0       	ldi	r25, 0x01	; 1
    3542:	0e 94 4e 09 	call	0x129c	; 0x129c <_ZN3TWI5writeERKhS1_S1_PS0_>
    3546:	f6 01       	movw	r30, r12
    3548:	80 83       	st	Z, r24
    354a:	af 96       	adiw	r28, 0x2f	; 47
    354c:	4f ae       	std	Y+63, r4	; 0x3f
    354e:	af 97       	sbiw	r28, 0x2f	; 47
    3550:	a5 e0       	ldi	r26, 0x05	; 5
    3552:	4a 2e       	mov	r4, r26
    3554:	ae 96       	adiw	r28, 0x2e	; 46
    3556:	4f ae       	std	Y+63, r4	; 0x3f
    3558:	ae 97       	sbiw	r28, 0x2e	; 46
    355a:	ea 86       	std	Y+10, r14	; 0x0a
    355c:	0e 5f       	subi	r16, 0xFE	; 254
    355e:	1f 4f       	sbci	r17, 0xFF	; 255
    3560:	9e 01       	movw	r18, r28
    3562:	26 5f       	subi	r18, 0xF6	; 246
    3564:	3f 4f       	sbci	r19, 0xFF	; 255
    3566:	ae 01       	movw	r20, r28
    3568:	42 59       	subi	r20, 0x92	; 146
    356a:	5f 4f       	sbci	r21, 0xFF	; 255
    356c:	b5 01       	movw	r22, r10
    356e:	8c e3       	ldi	r24, 0x3C	; 60
    3570:	91 e0       	ldi	r25, 0x01	; 1
    3572:	0e 94 4e 09 	call	0x129c	; 0x129c <_ZN3TWI5writeERKhS1_S1_PS0_>
    3576:	f6 01       	movw	r30, r12
    3578:	80 83       	st	Z, r24
    357a:	e1 96       	adiw	r28, 0x31	; 49
    357c:	7f ae       	std	Y+63, r7	; 0x3f
    357e:	e1 97       	sbiw	r28, 0x31	; 49
    3580:	e0 96       	adiw	r28, 0x30	; 48
    3582:	7f ae       	std	Y+63, r7	; 0x3f
    3584:	e0 97       	sbiw	r28, 0x30	; 48
    3586:	ea 86       	std	Y+10, r14	; 0x0a
    3588:	0e 5f       	subi	r16, 0xFE	; 254
    358a:	1f 4f       	sbci	r17, 0xFF	; 255
    358c:	9e 01       	movw	r18, r28
    358e:	26 5f       	subi	r18, 0xF6	; 246
    3590:	3f 4f       	sbci	r19, 0xFF	; 255
    3592:	ae 01       	movw	r20, r28
    3594:	40 59       	subi	r20, 0x90	; 144
    3596:	5f 4f       	sbci	r21, 0xFF	; 255
    3598:	b5 01       	movw	r22, r10
    359a:	8c e3       	ldi	r24, 0x3C	; 60
    359c:	91 e0       	ldi	r25, 0x01	; 1
    359e:	0e 94 4e 09 	call	0x129c	; 0x129c <_ZN3TWI5writeERKhS1_S1_PS0_>
    35a2:	f6 01       	movw	r30, r12
    35a4:	80 83       	st	Z, r24
    35a6:	8e e0       	ldi	r24, 0x0E	; 14
    35a8:	e3 96       	adiw	r28, 0x33	; 51
    35aa:	8f af       	std	Y+63, r24	; 0x3f
    35ac:	e3 97       	sbiw	r28, 0x33	; 51
    35ae:	e2 96       	adiw	r28, 0x32	; 50
    35b0:	5f ae       	std	Y+63, r5	; 0x3f
    35b2:	e2 97       	sbiw	r28, 0x32	; 50
    35b4:	ea 86       	std	Y+10, r14	; 0x0a
    35b6:	0e 5f       	subi	r16, 0xFE	; 254
    35b8:	1f 4f       	sbci	r17, 0xFF	; 255
    35ba:	9e 01       	movw	r18, r28
    35bc:	26 5f       	subi	r18, 0xF6	; 246
    35be:	3f 4f       	sbci	r19, 0xFF	; 255
    35c0:	ae 01       	movw	r20, r28
    35c2:	4e 58       	subi	r20, 0x8E	; 142
    35c4:	5f 4f       	sbci	r21, 0xFF	; 255
    35c6:	b5 01       	movw	r22, r10
    35c8:	8c e3       	ldi	r24, 0x3C	; 60
    35ca:	91 e0       	ldi	r25, 0x01	; 1
    35cc:	0e 94 4e 09 	call	0x129c	; 0x129c <_ZN3TWI5writeERKhS1_S1_PS0_>
    35d0:	f6 01       	movw	r30, r12
    35d2:	80 83       	st	Z, r24
    35d4:	f0 e2       	ldi	r31, 0x20	; 32
    35d6:	e5 96       	adiw	r28, 0x35	; 53
    35d8:	ff af       	std	Y+63, r31	; 0x3f
    35da:	e5 97       	sbiw	r28, 0x35	; 53
    35dc:	8a e1       	ldi	r24, 0x1A	; 26
    35de:	e4 96       	adiw	r28, 0x34	; 52
    35e0:	8f af       	std	Y+63, r24	; 0x3f
    35e2:	e4 97       	sbiw	r28, 0x34	; 52
    35e4:	ea 86       	std	Y+10, r14	; 0x0a
    35e6:	0e 5f       	subi	r16, 0xFE	; 254
    35e8:	1f 4f       	sbci	r17, 0xFF	; 255
    35ea:	9e 01       	movw	r18, r28
    35ec:	26 5f       	subi	r18, 0xF6	; 246
    35ee:	3f 4f       	sbci	r19, 0xFF	; 255
    35f0:	ae 01       	movw	r20, r28
    35f2:	4c 58       	subi	r20, 0x8C	; 140
    35f4:	5f 4f       	sbci	r21, 0xFF	; 255
    35f6:	b5 01       	movw	r22, r10
    35f8:	8c e3       	ldi	r24, 0x3C	; 60
    35fa:	91 e0       	ldi	r25, 0x01	; 1
    35fc:	0e 94 4e 09 	call	0x129c	; 0x129c <_ZN3TWI5writeERKhS1_S1_PS0_>
    3600:	f6 01       	movw	r30, r12
    3602:	80 83       	st	Z, r24
    3604:	83 e4       	ldi	r24, 0x43	; 67
    3606:	e7 96       	adiw	r28, 0x37	; 55
    3608:	8f af       	std	Y+63, r24	; 0x3f
    360a:	e7 97       	sbiw	r28, 0x37	; 55
    360c:	e6 96       	adiw	r28, 0x36	; 54
    360e:	7f ae       	std	Y+63, r7	; 0x3f
    3610:	e6 97       	sbiw	r28, 0x36	; 54
    3612:	ea 86       	std	Y+10, r14	; 0x0a
    3614:	0e 5f       	subi	r16, 0xFE	; 254
    3616:	1f 4f       	sbci	r17, 0xFF	; 255
    3618:	9e 01       	movw	r18, r28
    361a:	26 5f       	subi	r18, 0xF6	; 246
    361c:	3f 4f       	sbci	r19, 0xFF	; 255
    361e:	ae 01       	movw	r20, r28
    3620:	4a 58       	subi	r20, 0x8A	; 138
    3622:	5f 4f       	sbci	r21, 0xFF	; 255
    3624:	b5 01       	movw	r22, r10
    3626:	8c e3       	ldi	r24, 0x3C	; 60
    3628:	91 e0       	ldi	r25, 0x01	; 1
    362a:	0e 94 4e 09 	call	0x129c	; 0x129c <_ZN3TWI5writeERKhS1_S1_PS0_>
    362e:	f6 01       	movw	r30, r12
    3630:	80 83       	st	Z, r24
    3632:	e9 96       	adiw	r28, 0x39	; 57
    3634:	9f ae       	std	Y+63, r9	; 0x3f
    3636:	e9 97       	sbiw	r28, 0x39	; 57
    3638:	e8 96       	adiw	r28, 0x38	; 56
    363a:	1f ae       	std	Y+63, r1	; 0x3f
    363c:	e8 97       	sbiw	r28, 0x38	; 56
    363e:	ea 86       	std	Y+10, r14	; 0x0a
    3640:	0e 5f       	subi	r16, 0xFE	; 254
    3642:	1f 4f       	sbci	r17, 0xFF	; 255
    3644:	9e 01       	movw	r18, r28
    3646:	26 5f       	subi	r18, 0xF6	; 246
    3648:	3f 4f       	sbci	r19, 0xFF	; 255
    364a:	ae 01       	movw	r20, r28
    364c:	48 58       	subi	r20, 0x88	; 136
    364e:	5f 4f       	sbci	r21, 0xFF	; 255
    3650:	b5 01       	movw	r22, r10
    3652:	8c e3       	ldi	r24, 0x3C	; 60
    3654:	91 e0       	ldi	r25, 0x01	; 1
    3656:	0e 94 4e 09 	call	0x129c	; 0x129c <_ZN3TWI5writeERKhS1_S1_PS0_>
    365a:	f6 01       	movw	r30, r12
    365c:	80 83       	st	Z, r24
    365e:	eb 96       	adiw	r28, 0x3b	; 59
    3660:	3f ae       	std	Y+63, r3	; 0x3f
    3662:	eb 97       	sbiw	r28, 0x3b	; 59
    3664:	f3 e0       	ldi	r31, 0x03	; 3
    3666:	ea 96       	adiw	r28, 0x3a	; 58
    3668:	ff af       	std	Y+63, r31	; 0x3f
    366a:	ea 97       	sbiw	r28, 0x3a	; 58
    366c:	ea 86       	std	Y+10, r14	; 0x0a
    366e:	0e 5f       	subi	r16, 0xFE	; 254
    3670:	1f 4f       	sbci	r17, 0xFF	; 255
    3672:	9e 01       	movw	r18, r28
    3674:	26 5f       	subi	r18, 0xF6	; 246
    3676:	3f 4f       	sbci	r19, 0xFF	; 255
    3678:	ae 01       	movw	r20, r28
    367a:	46 58       	subi	r20, 0x86	; 134
    367c:	5f 4f       	sbci	r21, 0xFF	; 255
    367e:	b5 01       	movw	r22, r10
    3680:	8c e3       	ldi	r24, 0x3C	; 60
    3682:	91 e0       	ldi	r25, 0x01	; 1
    3684:	0e 94 4e 09 	call	0x129c	; 0x129c <_ZN3TWI5writeERKhS1_S1_PS0_>
    3688:	f6 01       	movw	r30, r12
    368a:	80 83       	st	Z, r24
    368c:	85 e3       	ldi	r24, 0x35	; 53
    368e:	ed 96       	adiw	r28, 0x3d	; 61
    3690:	8f af       	std	Y+63, r24	; 0x3f
    3692:	ed 97       	sbiw	r28, 0x3d	; 61
    3694:	ec 96       	adiw	r28, 0x3c	; 60
    3696:	ff ae       	std	Y+63, r15	; 0x3f
    3698:	ec 97       	sbiw	r28, 0x3c	; 60
    369a:	ea 86       	std	Y+10, r14	; 0x0a
    369c:	0e 5f       	subi	r16, 0xFE	; 254
    369e:	1f 4f       	sbci	r17, 0xFF	; 255
    36a0:	9e 01       	movw	r18, r28
    36a2:	26 5f       	subi	r18, 0xF6	; 246
    36a4:	3f 4f       	sbci	r19, 0xFF	; 255
    36a6:	ae 01       	movw	r20, r28
    36a8:	44 58       	subi	r20, 0x84	; 132
    36aa:	5f 4f       	sbci	r21, 0xFF	; 255
    36ac:	b5 01       	movw	r22, r10
    36ae:	8c e3       	ldi	r24, 0x3C	; 60
    36b0:	91 e0       	ldi	r25, 0x01	; 1
    36b2:	0e 94 4e 09 	call	0x129c	; 0x129c <_ZN3TWI5writeERKhS1_S1_PS0_>
    36b6:	f6 01       	movw	r30, r12
    36b8:	80 83       	st	Z, r24
    36ba:	ef 96       	adiw	r28, 0x3f	; 63
    36bc:	9f ae       	std	Y+63, r9	; 0x3f
    36be:	ef 97       	sbiw	r28, 0x3f	; 63
    36c0:	ee 96       	adiw	r28, 0x3e	; 62
    36c2:	ef ae       	std	Y+63, r14	; 0x3f
    36c4:	ee 97       	sbiw	r28, 0x3e	; 62
    36c6:	ea 86       	std	Y+10, r14	; 0x0a
    36c8:	0e 5f       	subi	r16, 0xFE	; 254
    36ca:	1f 4f       	sbci	r17, 0xFF	; 255
    36cc:	9e 01       	movw	r18, r28
    36ce:	26 5f       	subi	r18, 0xF6	; 246
    36d0:	3f 4f       	sbci	r19, 0xFF	; 255
    36d2:	ae 01       	movw	r20, r28
    36d4:	42 58       	subi	r20, 0x82	; 130
    36d6:	5f 4f       	sbci	r21, 0xFF	; 255
    36d8:	b5 01       	movw	r22, r10
    36da:	8c e3       	ldi	r24, 0x3C	; 60
    36dc:	91 e0       	ldi	r25, 0x01	; 1
    36de:	0e 94 4e 09 	call	0x129c	; 0x129c <_ZN3TWI5writeERKhS1_S1_PS0_>
    36e2:	f6 01       	movw	r30, r12
    36e4:	80 83       	st	Z, r24
    36e6:	f1 e3       	ldi	r31, 0x31	; 49
    36e8:	c0 58       	subi	r28, 0x80	; 128
    36ea:	df 4f       	sbci	r29, 0xFF	; 255
    36ec:	f8 83       	st	Y, r31
    36ee:	c0 58       	subi	r28, 0x80	; 128
    36f0:	d0 40       	sbci	r29, 0x00	; 0
    36f2:	c1 58       	subi	r28, 0x81	; 129
    36f4:	df 4f       	sbci	r29, 0xFF	; 255
    36f6:	88 82       	st	Y, r8
    36f8:	cf 57       	subi	r28, 0x7F	; 127
    36fa:	d0 40       	sbci	r29, 0x00	; 0
    36fc:	ea 86       	std	Y+10, r14	; 0x0a
    36fe:	0e 5f       	subi	r16, 0xFE	; 254
    3700:	1f 4f       	sbci	r17, 0xFF	; 255
    3702:	9e 01       	movw	r18, r28
    3704:	26 5f       	subi	r18, 0xF6	; 246
    3706:	3f 4f       	sbci	r19, 0xFF	; 255
    3708:	ae 01       	movw	r20, r28
    370a:	40 58       	subi	r20, 0x80	; 128
    370c:	5f 4f       	sbci	r21, 0xFF	; 255
    370e:	b5 01       	movw	r22, r10
    3710:	8c e3       	ldi	r24, 0x3C	; 60
    3712:	91 e0       	ldi	r25, 0x01	; 1
    3714:	0e 94 4e 09 	call	0x129c	; 0x129c <_ZN3TWI5writeERKhS1_S1_PS0_>
    3718:	f6 01       	movw	r30, r12
    371a:	80 83       	st	Z, r24
    371c:	8b e4       	ldi	r24, 0x4B	; 75
    371e:	ce 57       	subi	r28, 0x7E	; 126
    3720:	df 4f       	sbci	r29, 0xFF	; 255
    3722:	88 83       	st	Y, r24
    3724:	c2 58       	subi	r28, 0x82	; 130
    3726:	d0 40       	sbci	r29, 0x00	; 0
    3728:	cf 57       	subi	r28, 0x7F	; 127
    372a:	df 4f       	sbci	r29, 0xFF	; 255
    372c:	68 82       	st	Y, r6
    372e:	c1 58       	subi	r28, 0x81	; 129
    3730:	d0 40       	sbci	r29, 0x00	; 0
    3732:	ea 86       	std	Y+10, r14	; 0x0a
    3734:	0e 5f       	subi	r16, 0xFE	; 254
    3736:	1f 4f       	sbci	r17, 0xFF	; 255
    3738:	9e 01       	movw	r18, r28
    373a:	26 5f       	subi	r18, 0xF6	; 246
    373c:	3f 4f       	sbci	r19, 0xFF	; 255
    373e:	ae 01       	movw	r20, r28
    3740:	4e 57       	subi	r20, 0x7E	; 126
    3742:	5f 4f       	sbci	r21, 0xFF	; 255
    3744:	b5 01       	movw	r22, r10
    3746:	8c e3       	ldi	r24, 0x3C	; 60
    3748:	91 e0       	ldi	r25, 0x01	; 1
    374a:	0e 94 4e 09 	call	0x129c	; 0x129c <_ZN3TWI5writeERKhS1_S1_PS0_>
    374e:	f6 01       	movw	r30, r12
    3750:	80 83       	st	Z, r24
    3752:	8c e4       	ldi	r24, 0x4C	; 76
    3754:	cc 57       	subi	r28, 0x7C	; 124
    3756:	df 4f       	sbci	r29, 0xFF	; 255
    3758:	88 83       	st	Y, r24
    375a:	c4 58       	subi	r28, 0x84	; 132
    375c:	d0 40       	sbci	r29, 0x00	; 0
    375e:	cd 57       	subi	r28, 0x7D	; 125
    3760:	df 4f       	sbci	r29, 0xFF	; 255
    3762:	48 82       	st	Y, r4
    3764:	c3 58       	subi	r28, 0x83	; 131
    3766:	d0 40       	sbci	r29, 0x00	; 0
    3768:	ea 86       	std	Y+10, r14	; 0x0a
    376a:	0e 5f       	subi	r16, 0xFE	; 254
    376c:	1f 4f       	sbci	r17, 0xFF	; 255
    376e:	9e 01       	movw	r18, r28
    3770:	26 5f       	subi	r18, 0xF6	; 246
    3772:	3f 4f       	sbci	r19, 0xFF	; 255
    3774:	ae 01       	movw	r20, r28
    3776:	4c 57       	subi	r20, 0x7C	; 124
    3778:	5f 4f       	sbci	r21, 0xFF	; 255
    377a:	b5 01       	movw	r22, r10
    377c:	8c e3       	ldi	r24, 0x3C	; 60
    377e:	91 e0       	ldi	r25, 0x01	; 1
    3780:	0e 94 4e 09 	call	0x129c	; 0x129c <_ZN3TWI5writeERKhS1_S1_PS0_>
    3784:	f6 01       	movw	r30, r12
    3786:	80 83       	st	Z, r24
    3788:	8d e4       	ldi	r24, 0x4D	; 77
    378a:	ca 57       	subi	r28, 0x7A	; 122
    378c:	df 4f       	sbci	r29, 0xFF	; 255
    378e:	88 83       	st	Y, r24
    3790:	c6 58       	subi	r28, 0x86	; 134
    3792:	d0 40       	sbci	r29, 0x00	; 0
    3794:	cb 57       	subi	r28, 0x7B	; 123
    3796:	df 4f       	sbci	r29, 0xFF	; 255
    3798:	88 82       	st	Y, r8
    379a:	c5 58       	subi	r28, 0x85	; 133
    379c:	d0 40       	sbci	r29, 0x00	; 0
    379e:	ea 86       	std	Y+10, r14	; 0x0a
    37a0:	0e 5f       	subi	r16, 0xFE	; 254
    37a2:	1f 4f       	sbci	r17, 0xFF	; 255
    37a4:	9e 01       	movw	r18, r28
    37a6:	26 5f       	subi	r18, 0xF6	; 246
    37a8:	3f 4f       	sbci	r19, 0xFF	; 255
    37aa:	ae 01       	movw	r20, r28
    37ac:	4a 57       	subi	r20, 0x7A	; 122
    37ae:	5f 4f       	sbci	r21, 0xFF	; 255
    37b0:	b5 01       	movw	r22, r10
    37b2:	8c e3       	ldi	r24, 0x3C	; 60
    37b4:	91 e0       	ldi	r25, 0x01	; 1
    37b6:	0e 94 4e 09 	call	0x129c	; 0x129c <_ZN3TWI5writeERKhS1_S1_PS0_>
    37ba:	f6 01       	movw	r30, r12
    37bc:	80 83       	st	Z, r24
    37be:	c8 57       	subi	r28, 0x78	; 120
    37c0:	df 4f       	sbci	r29, 0xFF	; 255
    37c2:	98 82       	st	Y, r9
    37c4:	c8 58       	subi	r28, 0x88	; 136
    37c6:	d0 40       	sbci	r29, 0x00	; 0
    37c8:	c9 57       	subi	r28, 0x79	; 121
    37ca:	df 4f       	sbci	r29, 0xFF	; 255
    37cc:	18 82       	st	Y, r1
    37ce:	c7 58       	subi	r28, 0x87	; 135
    37d0:	d0 40       	sbci	r29, 0x00	; 0
    37d2:	ea 86       	std	Y+10, r14	; 0x0a
    37d4:	0e 5f       	subi	r16, 0xFE	; 254
    37d6:	1f 4f       	sbci	r17, 0xFF	; 255
    37d8:	9e 01       	movw	r18, r28
    37da:	26 5f       	subi	r18, 0xF6	; 246
    37dc:	3f 4f       	sbci	r19, 0xFF	; 255
    37de:	ae 01       	movw	r20, r28
    37e0:	48 57       	subi	r20, 0x78	; 120
    37e2:	5f 4f       	sbci	r21, 0xFF	; 255
    37e4:	b5 01       	movw	r22, r10
    37e6:	8c e3       	ldi	r24, 0x3C	; 60
    37e8:	91 e0       	ldi	r25, 0x01	; 1
    37ea:	0e 94 4e 09 	call	0x129c	; 0x129c <_ZN3TWI5writeERKhS1_S1_PS0_>
    37ee:	f6 01       	movw	r30, r12
    37f0:	80 83       	st	Z, r24
    37f2:	c6 57       	subi	r28, 0x76	; 118
    37f4:	df 4f       	sbci	r29, 0xFF	; 255
    37f6:	f8 82       	st	Y, r15
    37f8:	ca 58       	subi	r28, 0x8A	; 138
    37fa:	d0 40       	sbci	r29, 0x00	; 0
    37fc:	c7 57       	subi	r28, 0x77	; 119
    37fe:	df 4f       	sbci	r29, 0xFF	; 255
    3800:	18 82       	st	Y, r1
    3802:	c9 58       	subi	r28, 0x89	; 137
    3804:	d0 40       	sbci	r29, 0x00	; 0
    3806:	ea 86       	std	Y+10, r14	; 0x0a
    3808:	0e 5f       	subi	r16, 0xFE	; 254
    380a:	1f 4f       	sbci	r17, 0xFF	; 255
    380c:	9e 01       	movw	r18, r28
    380e:	26 5f       	subi	r18, 0xF6	; 246
    3810:	3f 4f       	sbci	r19, 0xFF	; 255
    3812:	ae 01       	movw	r20, r28
    3814:	46 57       	subi	r20, 0x76	; 118
    3816:	5f 4f       	sbci	r21, 0xFF	; 255
    3818:	b5 01       	movw	r22, r10
    381a:	8c e3       	ldi	r24, 0x3C	; 60
    381c:	91 e0       	ldi	r25, 0x01	; 1
    381e:	0e 94 4e 09 	call	0x129c	; 0x129c <_ZN3TWI5writeERKhS1_S1_PS0_>
    3822:	f6 01       	movw	r30, r12
    3824:	80 83       	st	Z, r24
    3826:	c4 57       	subi	r28, 0x74	; 116
    3828:	df 4f       	sbci	r29, 0xFF	; 255
    382a:	28 82       	st	Y, r2
    382c:	cc 58       	subi	r28, 0x8C	; 140
    382e:	d0 40       	sbci	r29, 0x00	; 0
    3830:	f0 e2       	ldi	r31, 0x20	; 32
    3832:	c5 57       	subi	r28, 0x75	; 117
    3834:	df 4f       	sbci	r29, 0xFF	; 255
    3836:	f8 83       	st	Y, r31
    3838:	cb 58       	subi	r28, 0x8B	; 139
    383a:	d0 40       	sbci	r29, 0x00	; 0
    383c:	ea 86       	std	Y+10, r14	; 0x0a
    383e:	0e 5f       	subi	r16, 0xFE	; 254
    3840:	1f 4f       	sbci	r17, 0xFF	; 255
    3842:	9e 01       	movw	r18, r28
    3844:	26 5f       	subi	r18, 0xF6	; 246
    3846:	3f 4f       	sbci	r19, 0xFF	; 255
    3848:	ae 01       	movw	r20, r28
    384a:	44 57       	subi	r20, 0x74	; 116
    384c:	5f 4f       	sbci	r21, 0xFF	; 255
    384e:	b5 01       	movw	r22, r10
    3850:	8c e3       	ldi	r24, 0x3C	; 60
    3852:	91 e0       	ldi	r25, 0x01	; 1
    3854:	0e 94 4e 09 	call	0x129c	; 0x129c <_ZN3TWI5writeERKhS1_S1_PS0_>
    3858:	f6 01       	movw	r30, r12
    385a:	80 83       	st	Z, r24
    385c:	f7 e4       	ldi	r31, 0x47	; 71
    385e:	c2 57       	subi	r28, 0x72	; 114
    3860:	df 4f       	sbci	r29, 0xFF	; 255
    3862:	f8 83       	st	Y, r31
    3864:	ce 58       	subi	r28, 0x8E	; 142
    3866:	d0 40       	sbci	r29, 0x00	; 0
    3868:	88 e0       	ldi	r24, 0x08	; 8
    386a:	c3 57       	subi	r28, 0x73	; 115
    386c:	df 4f       	sbci	r29, 0xFF	; 255
    386e:	88 83       	st	Y, r24
    3870:	cd 58       	subi	r28, 0x8D	; 141
    3872:	d0 40       	sbci	r29, 0x00	; 0
    3874:	ea 86       	std	Y+10, r14	; 0x0a
    3876:	0e 5f       	subi	r16, 0xFE	; 254
    3878:	1f 4f       	sbci	r17, 0xFF	; 255
    387a:	9e 01       	movw	r18, r28
    387c:	26 5f       	subi	r18, 0xF6	; 246
    387e:	3f 4f       	sbci	r19, 0xFF	; 255
    3880:	ae 01       	movw	r20, r28
    3882:	42 57       	subi	r20, 0x72	; 114
    3884:	5f 4f       	sbci	r21, 0xFF	; 255
    3886:	b5 01       	movw	r22, r10
    3888:	8c e3       	ldi	r24, 0x3C	; 60
    388a:	91 e0       	ldi	r25, 0x01	; 1
    388c:	0e 94 4e 09 	call	0x129c	; 0x129c <_ZN3TWI5writeERKhS1_S1_PS0_>
    3890:	f6 01       	movw	r30, r12
    3892:	80 83       	st	Z, r24
    3894:	f8 e4       	ldi	r31, 0x48	; 72
    3896:	c0 57       	subi	r28, 0x70	; 112
    3898:	df 4f       	sbci	r29, 0xFF	; 255
    389a:	f8 83       	st	Y, r31
    389c:	c0 59       	subi	r28, 0x90	; 144
    389e:	d0 40       	sbci	r29, 0x00	; 0
    38a0:	88 e2       	ldi	r24, 0x28	; 40
    38a2:	c1 57       	subi	r28, 0x71	; 113
    38a4:	df 4f       	sbci	r29, 0xFF	; 255
    38a6:	88 83       	st	Y, r24
    38a8:	cf 58       	subi	r28, 0x8F	; 143
    38aa:	d0 40       	sbci	r29, 0x00	; 0
    38ac:	ea 86       	std	Y+10, r14	; 0x0a
    38ae:	0e 5f       	subi	r16, 0xFE	; 254
    38b0:	1f 4f       	sbci	r17, 0xFF	; 255
    38b2:	9e 01       	movw	r18, r28
    38b4:	26 5f       	subi	r18, 0xF6	; 246
    38b6:	3f 4f       	sbci	r19, 0xFF	; 255
    38b8:	ae 01       	movw	r20, r28
    38ba:	40 57       	subi	r20, 0x70	; 112
    38bc:	5f 4f       	sbci	r21, 0xFF	; 255
    38be:	b5 01       	movw	r22, r10
    38c0:	8c e3       	ldi	r24, 0x3C	; 60
    38c2:	91 e0       	ldi	r25, 0x01	; 1
    38c4:	0e 94 4e 09 	call	0x129c	; 0x129c <_ZN3TWI5writeERKhS1_S1_PS0_>
    38c8:	f6 01       	movw	r30, r12
    38ca:	80 83       	st	Z, r24
    38cc:	87 e6       	ldi	r24, 0x67	; 103
    38ce:	ce 56       	subi	r28, 0x6E	; 110
    38d0:	df 4f       	sbci	r29, 0xFF	; 255
    38d2:	88 83       	st	Y, r24
    38d4:	c2 59       	subi	r28, 0x92	; 146
    38d6:	d0 40       	sbci	r29, 0x00	; 0
    38d8:	cf 56       	subi	r28, 0x6F	; 111
    38da:	df 4f       	sbci	r29, 0xFF	; 255
    38dc:	18 82       	st	Y, r1
    38de:	c1 59       	subi	r28, 0x91	; 145
    38e0:	d0 40       	sbci	r29, 0x00	; 0
    38e2:	ea 86       	std	Y+10, r14	; 0x0a
    38e4:	0e 5f       	subi	r16, 0xFE	; 254
    38e6:	1f 4f       	sbci	r17, 0xFF	; 255
    38e8:	9e 01       	movw	r18, r28
    38ea:	26 5f       	subi	r18, 0xF6	; 246
    38ec:	3f 4f       	sbci	r19, 0xFF	; 255
    38ee:	ae 01       	movw	r20, r28
    38f0:	4e 56       	subi	r20, 0x6E	; 110
    38f2:	5f 4f       	sbci	r21, 0xFF	; 255
    38f4:	b5 01       	movw	r22, r10
    38f6:	8c e3       	ldi	r24, 0x3C	; 60
    38f8:	91 e0       	ldi	r25, 0x01	; 1
    38fa:	0e 94 4e 09 	call	0x129c	; 0x129c <_ZN3TWI5writeERKhS1_S1_PS0_>
    38fe:	f6 01       	movw	r30, r12
    3900:	80 83       	st	Z, r24
    3902:	80 e7       	ldi	r24, 0x70	; 112
    3904:	cc 56       	subi	r28, 0x6C	; 108
    3906:	df 4f       	sbci	r29, 0xFF	; 255
    3908:	88 83       	st	Y, r24
    390a:	c4 59       	subi	r28, 0x94	; 148
    390c:	d0 40       	sbci	r29, 0x00	; 0
    390e:	cd 56       	subi	r28, 0x6D	; 109
    3910:	df 4f       	sbci	r29, 0xFF	; 255
    3912:	88 82       	st	Y, r8
    3914:	c3 59       	subi	r28, 0x93	; 147
    3916:	d0 40       	sbci	r29, 0x00	; 0
    3918:	ea 86       	std	Y+10, r14	; 0x0a
    391a:	0e 5f       	subi	r16, 0xFE	; 254
    391c:	1f 4f       	sbci	r17, 0xFF	; 255
    391e:	9e 01       	movw	r18, r28
    3920:	26 5f       	subi	r18, 0xF6	; 246
    3922:	3f 4f       	sbci	r19, 0xFF	; 255
    3924:	ae 01       	movw	r20, r28
    3926:	4c 56       	subi	r20, 0x6C	; 108
    3928:	5f 4f       	sbci	r21, 0xFF	; 255
    392a:	b5 01       	movw	r22, r10
    392c:	8c e3       	ldi	r24, 0x3C	; 60
    392e:	91 e0       	ldi	r25, 0x01	; 1
    3930:	0e 94 4e 09 	call	0x129c	; 0x129c <_ZN3TWI5writeERKhS1_S1_PS0_>
    3934:	f6 01       	movw	r30, r12
    3936:	80 83       	st	Z, r24
    3938:	81 e7       	ldi	r24, 0x71	; 113
    393a:	ca 56       	subi	r28, 0x6A	; 106
    393c:	df 4f       	sbci	r29, 0xFF	; 255
    393e:	88 83       	st	Y, r24
    3940:	c6 59       	subi	r28, 0x96	; 150
    3942:	d0 40       	sbci	r29, 0x00	; 0
    3944:	cb 56       	subi	r28, 0x6B	; 107
    3946:	df 4f       	sbci	r29, 0xFF	; 255
    3948:	e8 82       	st	Y, r14
    394a:	c5 59       	subi	r28, 0x95	; 149
    394c:	d0 40       	sbci	r29, 0x00	; 0
    394e:	ea 86       	std	Y+10, r14	; 0x0a
    3950:	0e 5f       	subi	r16, 0xFE	; 254
    3952:	1f 4f       	sbci	r17, 0xFF	; 255
    3954:	9e 01       	movw	r18, r28
    3956:	26 5f       	subi	r18, 0xF6	; 246
    3958:	3f 4f       	sbci	r19, 0xFF	; 255
    395a:	ae 01       	movw	r20, r28
    395c:	4a 56       	subi	r20, 0x6A	; 106
    395e:	5f 4f       	sbci	r21, 0xFF	; 255
    3960:	b5 01       	movw	r22, r10
    3962:	8c e3       	ldi	r24, 0x3C	; 60
    3964:	91 e0       	ldi	r25, 0x01	; 1
    3966:	0e 94 4e 09 	call	0x129c	; 0x129c <_ZN3TWI5writeERKhS1_S1_PS0_>
    396a:	f6 01       	movw	r30, r12
    396c:	80 83       	st	Z, r24
    396e:	82 e7       	ldi	r24, 0x72	; 114
    3970:	c8 56       	subi	r28, 0x68	; 104
    3972:	df 4f       	sbci	r29, 0xFF	; 255
    3974:	88 83       	st	Y, r24
    3976:	c8 59       	subi	r28, 0x98	; 152
    3978:	d0 40       	sbci	r29, 0x00	; 0
    397a:	8e ef       	ldi	r24, 0xFE	; 254
    397c:	c9 56       	subi	r28, 0x69	; 105
    397e:	df 4f       	sbci	r29, 0xFF	; 255
    3980:	88 83       	st	Y, r24
    3982:	c7 59       	subi	r28, 0x97	; 151
    3984:	d0 40       	sbci	r29, 0x00	; 0
    3986:	ea 86       	std	Y+10, r14	; 0x0a
    3988:	0e 5f       	subi	r16, 0xFE	; 254
    398a:	1f 4f       	sbci	r17, 0xFF	; 255
    398c:	9e 01       	movw	r18, r28
    398e:	26 5f       	subi	r18, 0xF6	; 246
    3990:	3f 4f       	sbci	r19, 0xFF	; 255
    3992:	ae 01       	movw	r20, r28
    3994:	48 56       	subi	r20, 0x68	; 104
    3996:	5f 4f       	sbci	r21, 0xFF	; 255
    3998:	b5 01       	movw	r22, r10
    399a:	8c e3       	ldi	r24, 0x3C	; 60
    399c:	91 e0       	ldi	r25, 0x01	; 1
    399e:	0e 94 4e 09 	call	0x129c	; 0x129c <_ZN3TWI5writeERKhS1_S1_PS0_>
    39a2:	f6 01       	movw	r30, r12
    39a4:	80 83       	st	Z, r24
    39a6:	86 e7       	ldi	r24, 0x76	; 118
    39a8:	c6 56       	subi	r28, 0x66	; 102
    39aa:	df 4f       	sbci	r29, 0xFF	; 255
    39ac:	88 83       	st	Y, r24
    39ae:	ca 59       	subi	r28, 0x9A	; 154
    39b0:	d0 40       	sbci	r29, 0x00	; 0
    39b2:	c7 56       	subi	r28, 0x67	; 103
    39b4:	df 4f       	sbci	r29, 0xFF	; 255
    39b6:	18 82       	st	Y, r1
    39b8:	c9 59       	subi	r28, 0x99	; 153
    39ba:	d0 40       	sbci	r29, 0x00	; 0
    39bc:	ea 86       	std	Y+10, r14	; 0x0a
    39be:	0e 5f       	subi	r16, 0xFE	; 254
    39c0:	1f 4f       	sbci	r17, 0xFF	; 255
    39c2:	9e 01       	movw	r18, r28
    39c4:	26 5f       	subi	r18, 0xF6	; 246
    39c6:	3f 4f       	sbci	r19, 0xFF	; 255
    39c8:	ae 01       	movw	r20, r28
    39ca:	46 56       	subi	r20, 0x66	; 102
    39cc:	5f 4f       	sbci	r21, 0xFF	; 255
    39ce:	b5 01       	movw	r22, r10
    39d0:	8c e3       	ldi	r24, 0x3C	; 60
    39d2:	91 e0       	ldi	r25, 0x01	; 1
    39d4:	0e 94 4e 09 	call	0x129c	; 0x129c <_ZN3TWI5writeERKhS1_S1_PS0_>
    39d8:	f6 01       	movw	r30, r12
    39da:	80 83       	st	Z, r24
    39dc:	87 e7       	ldi	r24, 0x77	; 119
    39de:	c4 56       	subi	r28, 0x64	; 100
    39e0:	df 4f       	sbci	r29, 0xFF	; 255
    39e2:	88 83       	st	Y, r24
    39e4:	cc 59       	subi	r28, 0x9C	; 156
    39e6:	d0 40       	sbci	r29, 0x00	; 0
    39e8:	c5 56       	subi	r28, 0x65	; 101
    39ea:	df 4f       	sbci	r29, 0xFF	; 255
    39ec:	18 82       	st	Y, r1
    39ee:	cb 59       	subi	r28, 0x9B	; 155
    39f0:	d0 40       	sbci	r29, 0x00	; 0
    39f2:	ea 86       	std	Y+10, r14	; 0x0a
    39f4:	0e 5f       	subi	r16, 0xFE	; 254
    39f6:	1f 4f       	sbci	r17, 0xFF	; 255
    39f8:	9e 01       	movw	r18, r28
    39fa:	26 5f       	subi	r18, 0xF6	; 246
    39fc:	3f 4f       	sbci	r19, 0xFF	; 255
    39fe:	ae 01       	movw	r20, r28
    3a00:	44 56       	subi	r20, 0x64	; 100
    3a02:	5f 4f       	sbci	r21, 0xFF	; 255
    3a04:	b5 01       	movw	r22, r10
    3a06:	8c e3       	ldi	r24, 0x3C	; 60
    3a08:	91 e0       	ldi	r25, 0x01	; 1
    3a0a:	0e 94 4e 09 	call	0x129c	; 0x129c <_ZN3TWI5writeERKhS1_S1_PS0_>
    3a0e:	f6 01       	movw	r30, r12
    3a10:	80 83       	st	Z, r24
    3a12:	c2 56       	subi	r28, 0x62	; 98
    3a14:	df 4f       	sbci	r29, 0xFF	; 255
    3a16:	98 82       	st	Y, r9
    3a18:	ce 59       	subi	r28, 0x9E	; 158
    3a1a:	d0 40       	sbci	r29, 0x00	; 0
    3a1c:	c3 56       	subi	r28, 0x63	; 99
    3a1e:	df 4f       	sbci	r29, 0xFF	; 255
    3a20:	e8 82       	st	Y, r14
    3a22:	cd 59       	subi	r28, 0x9D	; 157
    3a24:	d0 40       	sbci	r29, 0x00	; 0
    3a26:	ea 86       	std	Y+10, r14	; 0x0a
    3a28:	0e 5f       	subi	r16, 0xFE	; 254
    3a2a:	1f 4f       	sbci	r17, 0xFF	; 255
    3a2c:	9e 01       	movw	r18, r28
    3a2e:	26 5f       	subi	r18, 0xF6	; 246
    3a30:	3f 4f       	sbci	r19, 0xFF	; 255
    3a32:	ae 01       	movw	r20, r28
    3a34:	42 56       	subi	r20, 0x62	; 98
    3a36:	5f 4f       	sbci	r21, 0xFF	; 255
    3a38:	b5 01       	movw	r22, r10
    3a3a:	8c e3       	ldi	r24, 0x3C	; 60
    3a3c:	91 e0       	ldi	r25, 0x01	; 1
    3a3e:	0e 94 4e 09 	call	0x129c	; 0x129c <_ZN3TWI5writeERKhS1_S1_PS0_>
    3a42:	f6 01       	movw	r30, r12
    3a44:	80 83       	st	Z, r24
    3a46:	8d e0       	ldi	r24, 0x0D	; 13
    3a48:	c0 56       	subi	r28, 0x60	; 96
    3a4a:	df 4f       	sbci	r29, 0xFF	; 255
    3a4c:	88 83       	st	Y, r24
    3a4e:	c0 5a       	subi	r28, 0xA0	; 160
    3a50:	d0 40       	sbci	r29, 0x00	; 0
    3a52:	c1 56       	subi	r28, 0x61	; 97
    3a54:	df 4f       	sbci	r29, 0xFF	; 255
    3a56:	e8 82       	st	Y, r14
    3a58:	cf 59       	subi	r28, 0x9F	; 159
    3a5a:	d0 40       	sbci	r29, 0x00	; 0
    3a5c:	ea 86       	std	Y+10, r14	; 0x0a
    3a5e:	0e 5f       	subi	r16, 0xFE	; 254
    3a60:	1f 4f       	sbci	r17, 0xFF	; 255
    3a62:	9e 01       	movw	r18, r28
    3a64:	26 5f       	subi	r18, 0xF6	; 246
    3a66:	3f 4f       	sbci	r19, 0xFF	; 255
    3a68:	ae 01       	movw	r20, r28
    3a6a:	40 56       	subi	r20, 0x60	; 96
    3a6c:	5f 4f       	sbci	r21, 0xFF	; 255
    3a6e:	b5 01       	movw	r22, r10
    3a70:	8c e3       	ldi	r24, 0x3C	; 60
    3a72:	91 e0       	ldi	r25, 0x01	; 1
    3a74:	0e 94 4e 09 	call	0x129c	; 0x129c <_ZN3TWI5writeERKhS1_S1_PS0_>
    3a78:	f6 01       	movw	r30, r12
    3a7a:	80 83       	st	Z, r24
    3a7c:	ce 55       	subi	r28, 0x5E	; 94
    3a7e:	df 4f       	sbci	r29, 0xFF	; 255
    3a80:	98 82       	st	Y, r9
    3a82:	c2 5a       	subi	r28, 0xA2	; 162
    3a84:	d0 40       	sbci	r29, 0x00	; 0
    3a86:	cf 55       	subi	r28, 0x5F	; 95
    3a88:	df 4f       	sbci	r29, 0xFF	; 255
    3a8a:	18 82       	st	Y, r1
    3a8c:	c1 5a       	subi	r28, 0xA1	; 161
    3a8e:	d0 40       	sbci	r29, 0x00	; 0
    3a90:	ea 86       	std	Y+10, r14	; 0x0a
    3a92:	0e 5f       	subi	r16, 0xFE	; 254
    3a94:	1f 4f       	sbci	r17, 0xFF	; 255
    3a96:	9e 01       	movw	r18, r28
    3a98:	26 5f       	subi	r18, 0xF6	; 246
    3a9a:	3f 4f       	sbci	r19, 0xFF	; 255
    3a9c:	ae 01       	movw	r20, r28
    3a9e:	4e 55       	subi	r20, 0x5E	; 94
    3aa0:	5f 4f       	sbci	r21, 0xFF	; 255
    3aa2:	b5 01       	movw	r22, r10
    3aa4:	8c e3       	ldi	r24, 0x3C	; 60
    3aa6:	91 e0       	ldi	r25, 0x01	; 1
    3aa8:	0e 94 4e 09 	call	0x129c	; 0x129c <_ZN3TWI5writeERKhS1_S1_PS0_>
    3aac:	f6 01       	movw	r30, r12
    3aae:	80 83       	st	Z, r24
    3ab0:	b0 e8       	ldi	r27, 0x80	; 128
    3ab2:	fb 2e       	mov	r15, r27
    3ab4:	cc 55       	subi	r28, 0x5C	; 92
    3ab6:	df 4f       	sbci	r29, 0xFF	; 255
    3ab8:	f8 82       	st	Y, r15
    3aba:	c4 5a       	subi	r28, 0xA4	; 164
    3abc:	d0 40       	sbci	r29, 0x00	; 0
    3abe:	cd 55       	subi	r28, 0x5D	; 93
    3ac0:	df 4f       	sbci	r29, 0xFF	; 255
    3ac2:	e8 82       	st	Y, r14
    3ac4:	c3 5a       	subi	r28, 0xA3	; 163
    3ac6:	d0 40       	sbci	r29, 0x00	; 0
    3ac8:	ea 86       	std	Y+10, r14	; 0x0a
    3aca:	0e 5f       	subi	r16, 0xFE	; 254
    3acc:	1f 4f       	sbci	r17, 0xFF	; 255
    3ace:	9e 01       	movw	r18, r28
    3ad0:	26 5f       	subi	r18, 0xF6	; 246
    3ad2:	3f 4f       	sbci	r19, 0xFF	; 255
    3ad4:	ae 01       	movw	r20, r28
    3ad6:	4c 55       	subi	r20, 0x5C	; 92
    3ad8:	5f 4f       	sbci	r21, 0xFF	; 255
    3ada:	b5 01       	movw	r22, r10
    3adc:	8c e3       	ldi	r24, 0x3C	; 60
    3ade:	91 e0       	ldi	r25, 0x01	; 1
    3ae0:	0e 94 4e 09 	call	0x129c	; 0x129c <_ZN3TWI5writeERKhS1_S1_PS0_>
    3ae4:	f6 01       	movw	r30, r12
    3ae6:	80 83       	st	Z, r24
    3ae8:	ca 55       	subi	r28, 0x5A	; 90
    3aea:	df 4f       	sbci	r29, 0xFF	; 255
    3aec:	e8 82       	st	Y, r14
    3aee:	c6 5a       	subi	r28, 0xA6	; 166
    3af0:	d0 40       	sbci	r29, 0x00	; 0
    3af2:	88 ef       	ldi	r24, 0xF8	; 248
    3af4:	cb 55       	subi	r28, 0x5B	; 91
    3af6:	df 4f       	sbci	r29, 0xFF	; 255
    3af8:	88 83       	st	Y, r24
    3afa:	c5 5a       	subi	r28, 0xA5	; 165
    3afc:	d0 40       	sbci	r29, 0x00	; 0
    3afe:	ea 86       	std	Y+10, r14	; 0x0a
    3b00:	0e 5f       	subi	r16, 0xFE	; 254
    3b02:	1f 4f       	sbci	r17, 0xFF	; 255
    3b04:	9e 01       	movw	r18, r28
    3b06:	26 5f       	subi	r18, 0xF6	; 246
    3b08:	3f 4f       	sbci	r19, 0xFF	; 255
    3b0a:	ae 01       	movw	r20, r28
    3b0c:	4a 55       	subi	r20, 0x5A	; 90
    3b0e:	5f 4f       	sbci	r21, 0xFF	; 255
    3b10:	b5 01       	movw	r22, r10
    3b12:	8c e3       	ldi	r24, 0x3C	; 60
    3b14:	91 e0       	ldi	r25, 0x01	; 1
    3b16:	0e 94 4e 09 	call	0x129c	; 0x129c <_ZN3TWI5writeERKhS1_S1_PS0_>
    3b1a:	f6 01       	movw	r30, r12
    3b1c:	80 83       	st	Z, r24
    3b1e:	c8 55       	subi	r28, 0x58	; 88
    3b20:	df 4f       	sbci	r29, 0xFF	; 255
    3b22:	98 82       	st	Y, r9
    3b24:	c8 5a       	subi	r28, 0xA8	; 168
    3b26:	d0 40       	sbci	r29, 0x00	; 0
    3b28:	c9 55       	subi	r28, 0x59	; 89
    3b2a:	df 4f       	sbci	r29, 0xFF	; 255
    3b2c:	e8 82       	st	Y, r14
    3b2e:	c7 5a       	subi	r28, 0xA7	; 167
    3b30:	d0 40       	sbci	r29, 0x00	; 0
    3b32:	ea 86       	std	Y+10, r14	; 0x0a
    3b34:	0e 5f       	subi	r16, 0xFE	; 254
    3b36:	1f 4f       	sbci	r17, 0xFF	; 255
    3b38:	9e 01       	movw	r18, r28
    3b3a:	26 5f       	subi	r18, 0xF6	; 246
    3b3c:	3f 4f       	sbci	r19, 0xFF	; 255
    3b3e:	ae 01       	movw	r20, r28
    3b40:	48 55       	subi	r20, 0x58	; 88
    3b42:	5f 4f       	sbci	r21, 0xFF	; 255
    3b44:	b5 01       	movw	r22, r10
    3b46:	8c e3       	ldi	r24, 0x3C	; 60
    3b48:	91 e0       	ldi	r25, 0x01	; 1
    3b4a:	0e 94 4e 09 	call	0x129c	; 0x129c <_ZN3TWI5writeERKhS1_S1_PS0_>
    3b4e:	f6 01       	movw	r30, r12
    3b50:	80 83       	st	Z, r24
    3b52:	8e e8       	ldi	r24, 0x8E	; 142
    3b54:	c6 55       	subi	r28, 0x56	; 86
    3b56:	df 4f       	sbci	r29, 0xFF	; 255
    3b58:	88 83       	st	Y, r24
    3b5a:	ca 5a       	subi	r28, 0xAA	; 170
    3b5c:	d0 40       	sbci	r29, 0x00	; 0
    3b5e:	c7 55       	subi	r28, 0x57	; 87
    3b60:	df 4f       	sbci	r29, 0xFF	; 255
    3b62:	e8 82       	st	Y, r14
    3b64:	c9 5a       	subi	r28, 0xA9	; 169
    3b66:	d0 40       	sbci	r29, 0x00	; 0
    3b68:	ea 86       	std	Y+10, r14	; 0x0a
    3b6a:	0e 5f       	subi	r16, 0xFE	; 254
    3b6c:	1f 4f       	sbci	r17, 0xFF	; 255
    3b6e:	9e 01       	movw	r18, r28
    3b70:	26 5f       	subi	r18, 0xF6	; 246
    3b72:	3f 4f       	sbci	r19, 0xFF	; 255
    3b74:	ae 01       	movw	r20, r28
    3b76:	46 55       	subi	r20, 0x56	; 86
    3b78:	5f 4f       	sbci	r21, 0xFF	; 255
    3b7a:	b5 01       	movw	r22, r10
    3b7c:	8c e3       	ldi	r24, 0x3C	; 60
    3b7e:	91 e0       	ldi	r25, 0x01	; 1
    3b80:	0e 94 4e 09 	call	0x129c	; 0x129c <_ZN3TWI5writeERKhS1_S1_PS0_>
    3b84:	f6 01       	movw	r30, r12
    3b86:	80 83       	st	Z, r24
    3b88:	c4 55       	subi	r28, 0x54	; 84
    3b8a:	df 4f       	sbci	r29, 0xFF	; 255
    3b8c:	18 82       	st	Y, r1
    3b8e:	cc 5a       	subi	r28, 0xAC	; 172
    3b90:	d0 40       	sbci	r29, 0x00	; 0
    3b92:	c5 55       	subi	r28, 0x55	; 85
    3b94:	df 4f       	sbci	r29, 0xFF	; 255
    3b96:	e8 82       	st	Y, r14
    3b98:	cb 5a       	subi	r28, 0xAB	; 171
    3b9a:	d0 40       	sbci	r29, 0x00	; 0
    3b9c:	ea 86       	std	Y+10, r14	; 0x0a
    3b9e:	0e 5f       	subi	r16, 0xFE	; 254
    3ba0:	1f 4f       	sbci	r17, 0xFF	; 255
    3ba2:	9e 01       	movw	r18, r28
    3ba4:	26 5f       	subi	r18, 0xF6	; 246
    3ba6:	3f 4f       	sbci	r19, 0xFF	; 255
    3ba8:	ae 01       	movw	r20, r28
    3baa:	44 55       	subi	r20, 0x54	; 84
    3bac:	5f 4f       	sbci	r21, 0xFF	; 255
    3bae:	b5 01       	movw	r22, r10
    3bb0:	8c e3       	ldi	r24, 0x3C	; 60
    3bb2:	91 e0       	ldi	r25, 0x01	; 1
    3bb4:	0e 94 4e 09 	call	0x129c	; 0x129c <_ZN3TWI5writeERKhS1_S1_PS0_>
    3bb8:	f6 01       	movw	r30, r12
    3bba:	80 83       	st	Z, r24
    3bbc:	c2 55       	subi	r28, 0x52	; 82
    3bbe:	df 4f       	sbci	r29, 0xFF	; 255
    3bc0:	98 82       	st	Y, r9
    3bc2:	ce 5a       	subi	r28, 0xAE	; 174
    3bc4:	d0 40       	sbci	r29, 0x00	; 0
    3bc6:	c3 55       	subi	r28, 0x53	; 83
    3bc8:	df 4f       	sbci	r29, 0xFF	; 255
    3bca:	18 82       	st	Y, r1
    3bcc:	cd 5a       	subi	r28, 0xAD	; 173
    3bce:	d0 40       	sbci	r29, 0x00	; 0
    3bd0:	ea 86       	std	Y+10, r14	; 0x0a
    3bd2:	0e 5f       	subi	r16, 0xFE	; 254
    3bd4:	1f 4f       	sbci	r17, 0xFF	; 255
    3bd6:	9e 01       	movw	r18, r28
    3bd8:	26 5f       	subi	r18, 0xF6	; 246
    3bda:	3f 4f       	sbci	r19, 0xFF	; 255
    3bdc:	ae 01       	movw	r20, r28
    3bde:	42 55       	subi	r20, 0x52	; 82
    3be0:	5f 4f       	sbci	r21, 0xFF	; 255
    3be2:	b5 01       	movw	r22, r10
    3be4:	8c e3       	ldi	r24, 0x3C	; 60
    3be6:	91 e0       	ldi	r25, 0x01	; 1
    3be8:	0e 94 4e 09 	call	0x129c	; 0x129c <_ZN3TWI5writeERKhS1_S1_PS0_>
    3bec:	f6 01       	movw	r30, r12
    3bee:	80 83       	st	Z, r24
    3bf0:	c0 55       	subi	r28, 0x50	; 80
    3bf2:	df 4f       	sbci	r29, 0xFF	; 255
    3bf4:	f8 82       	st	Y, r15
    3bf6:	c0 5b       	subi	r28, 0xB0	; 176
    3bf8:	d0 40       	sbci	r29, 0x00	; 0
    3bfa:	c1 55       	subi	r28, 0x51	; 81
    3bfc:	df 4f       	sbci	r29, 0xFF	; 255
    3bfe:	18 82       	st	Y, r1
    3c00:	cf 5a       	subi	r28, 0xAF	; 175
    3c02:	d0 40       	sbci	r29, 0x00	; 0
    3c04:	ea 86       	std	Y+10, r14	; 0x0a
    3c06:	0e 5f       	subi	r16, 0xFE	; 254
    3c08:	1f 4f       	sbci	r17, 0xFF	; 255
    3c0a:	9e 01       	movw	r18, r28
    3c0c:	26 5f       	subi	r18, 0xF6	; 246
    3c0e:	3f 4f       	sbci	r19, 0xFF	; 255
    3c10:	ae 01       	movw	r20, r28
    3c12:	40 55       	subi	r20, 0x50	; 80
    3c14:	5f 4f       	sbci	r21, 0xFF	; 255
    3c16:	b5 01       	movw	r22, r10
    3c18:	8c e3       	ldi	r24, 0x3C	; 60
    3c1a:	91 e0       	ldi	r25, 0x01	; 1
    3c1c:	0e 94 4e 09 	call	0x129c	; 0x129c <_ZN3TWI5writeERKhS1_S1_PS0_>
    3c20:	f6 01       	movw	r30, r12
    3c22:	80 83       	st	Z, r24
    3c24:	42 e0       	ldi	r20, 0x02	; 2
    3c26:	50 e0       	ldi	r21, 0x00	; 0
    3c28:	60 e0       	ldi	r22, 0x00	; 0
    3c2a:	70 e0       	ldi	r23, 0x00	; 0
    3c2c:	88 e8       	ldi	r24, 0x88	; 136
    3c2e:	91 e0       	ldi	r25, 0x01	; 1
    3c30:	0e 94 ff 08 	call	0x11fe	; 0x11fe <_ZN4Time5delayEm>
    3c34:	fa e0       	ldi	r31, 0x0A	; 10
    3c36:	ce 54       	subi	r28, 0x4E	; 78
    3c38:	df 4f       	sbci	r29, 0xFF	; 255
    3c3a:	f8 83       	st	Y, r31
    3c3c:	c2 5b       	subi	r28, 0xB2	; 178
    3c3e:	d0 40       	sbci	r29, 0x00	; 0
    3c40:	cf 54       	subi	r28, 0x4F	; 79
    3c42:	df 4f       	sbci	r29, 0xFF	; 255
    3c44:	88 82       	st	Y, r8
    3c46:	c1 5b       	subi	r28, 0xB1	; 177
    3c48:	d0 40       	sbci	r29, 0x00	; 0
    3c4a:	ea 86       	std	Y+10, r14	; 0x0a
    3c4c:	0e 5f       	subi	r16, 0xFE	; 254
    3c4e:	1f 4f       	sbci	r17, 0xFF	; 255
    3c50:	9e 01       	movw	r18, r28
    3c52:	26 5f       	subi	r18, 0xF6	; 246
    3c54:	3f 4f       	sbci	r19, 0xFF	; 255
    3c56:	ae 01       	movw	r20, r28
    3c58:	4e 54       	subi	r20, 0x4E	; 78
    3c5a:	5f 4f       	sbci	r21, 0xFF	; 255
    3c5c:	b5 01       	movw	r22, r10
    3c5e:	8c e3       	ldi	r24, 0x3C	; 60
    3c60:	91 e0       	ldi	r25, 0x01	; 1
    3c62:	0e 94 4e 09 	call	0x129c	; 0x129c <_ZN3TWI5writeERKhS1_S1_PS0_>
    3c66:	f6 01       	movw	r30, r12
    3c68:	80 83       	st	Z, r24
    3c6a:	84 e8       	ldi	r24, 0x84	; 132
    3c6c:	f8 2e       	mov	r15, r24
    3c6e:	cd 54       	subi	r28, 0x4D	; 77
    3c70:	df 4f       	sbci	r29, 0xFF	; 255
    3c72:	f8 82       	st	Y, r15
    3c74:	c3 5b       	subi	r28, 0xB3	; 179
    3c76:	d0 40       	sbci	r29, 0x00	; 0
    3c78:	ea 86       	std	Y+10, r14	; 0x0a
    3c7a:	06 5a       	subi	r16, 0xA6	; 166
    3c7c:	11 09       	sbc	r17, r1
    3c7e:	9e 01       	movw	r18, r28
    3c80:	26 5f       	subi	r18, 0xF6	; 246
    3c82:	3f 4f       	sbci	r19, 0xFF	; 255
    3c84:	ae 01       	movw	r20, r28
    3c86:	4d 54       	subi	r20, 0x4D	; 77
    3c88:	5f 4f       	sbci	r21, 0xFF	; 255
    3c8a:	b5 01       	movw	r22, r10
    3c8c:	8c e3       	ldi	r24, 0x3C	; 60
    3c8e:	91 e0       	ldi	r25, 0x01	; 1
    3c90:	0e 94 93 09 	call	0x1326	; 0x1326 <_ZN3TWI4readERKhS1_S1_Ph>
    3c94:	f6 01       	movw	r30, r12
    3c96:	80 83       	st	Z, r24
    3c98:	8b 85       	ldd	r24, Y+11	; 0x0b
    3c9a:	cb 54       	subi	r28, 0x4B	; 75
    3c9c:	df 4f       	sbci	r29, 0xFF	; 255
    3c9e:	f8 82       	st	Y, r15
    3ca0:	c5 5b       	subi	r28, 0xB5	; 181
    3ca2:	d0 40       	sbci	r29, 0x00	; 0
    3ca4:	8f 7e       	andi	r24, 0xEF	; 239
    3ca6:	cc 54       	subi	r28, 0x4C	; 76
    3ca8:	df 4f       	sbci	r29, 0xFF	; 255
    3caa:	88 83       	st	Y, r24
    3cac:	c4 5b       	subi	r28, 0xB4	; 180
    3cae:	d0 40       	sbci	r29, 0x00	; 0
    3cb0:	ea 86       	std	Y+10, r14	; 0x0a
    3cb2:	07 55       	subi	r16, 0x57	; 87
    3cb4:	1f 4f       	sbci	r17, 0xFF	; 255
    3cb6:	9e 01       	movw	r18, r28
    3cb8:	26 5f       	subi	r18, 0xF6	; 246
    3cba:	3f 4f       	sbci	r19, 0xFF	; 255
    3cbc:	ae 01       	movw	r20, r28
    3cbe:	4b 54       	subi	r20, 0x4B	; 75
    3cc0:	5f 4f       	sbci	r21, 0xFF	; 255
    3cc2:	b5 01       	movw	r22, r10
    3cc4:	8c e3       	ldi	r24, 0x3C	; 60
    3cc6:	91 e0       	ldi	r25, 0x01	; 1
    3cc8:	0e 94 4e 09 	call	0x129c	; 0x129c <_ZN3TWI5writeERKhS1_S1_PS0_>
    3ccc:	f6 01       	movw	r30, r12
    3cce:	80 83       	st	Z, r24
    3cd0:	8b e0       	ldi	r24, 0x0B	; 11
    3cd2:	c9 54       	subi	r28, 0x49	; 73
    3cd4:	df 4f       	sbci	r29, 0xFF	; 255
    3cd6:	88 83       	st	Y, r24
    3cd8:	c7 5b       	subi	r28, 0xB7	; 183
    3cda:	d0 40       	sbci	r29, 0x00	; 0
    3cdc:	ca 54       	subi	r28, 0x4A	; 74
    3cde:	df 4f       	sbci	r29, 0xFF	; 255
    3ce0:	e8 82       	st	Y, r14
    3ce2:	c6 5b       	subi	r28, 0xB6	; 182
    3ce4:	d0 40       	sbci	r29, 0x00	; 0
    3ce6:	ea 86       	std	Y+10, r14	; 0x0a
    3ce8:	0e 5f       	subi	r16, 0xFE	; 254
    3cea:	1f 4f       	sbci	r17, 0xFF	; 255
    3cec:	9e 01       	movw	r18, r28
    3cee:	26 5f       	subi	r18, 0xF6	; 246
    3cf0:	3f 4f       	sbci	r19, 0xFF	; 255
    3cf2:	ae 01       	movw	r20, r28
    3cf4:	49 54       	subi	r20, 0x49	; 73
    3cf6:	5f 4f       	sbci	r21, 0xFF	; 255
    3cf8:	b5 01       	movw	r22, r10
    3cfa:	8c e3       	ldi	r24, 0x3C	; 60
    3cfc:	91 e0       	ldi	r25, 0x01	; 1
    3cfe:	0e 94 4e 09 	call	0x129c	; 0x129c <_ZN3TWI5writeERKhS1_S1_PS0_>
    3d02:	f6 01       	movw	r30, r12
    3d04:	80 83       	st	Z, r24
    3d06:	c6 01       	movw	r24, r12
    3d08:	0e 94 ab 0c 	call	0x1956	; 0x1956 <_ZN7VL53L0X26getMeasurementTimingBudgetEv>
    3d0c:	f6 01       	movw	r30, r12
    3d0e:	60 87       	std	Z+8, r22	; 0x08
    3d10:	71 87       	std	Z+9, r23	; 0x09
    3d12:	82 87       	std	Z+10, r24	; 0x0a
    3d14:	93 87       	std	Z+11, r25	; 0x0b
    3d16:	42 e0       	ldi	r20, 0x02	; 2
    3d18:	50 e0       	ldi	r21, 0x00	; 0
    3d1a:	60 e0       	ldi	r22, 0x00	; 0
    3d1c:	70 e0       	ldi	r23, 0x00	; 0
    3d1e:	88 e8       	ldi	r24, 0x88	; 136
    3d20:	91 e0       	ldi	r25, 0x01	; 1
    3d22:	0e 94 ff 08 	call	0x11fe	; 0x11fe <_ZN4Time5delayEm>
    3d26:	c7 54       	subi	r28, 0x47	; 71
    3d28:	df 4f       	sbci	r29, 0xFF	; 255
    3d2a:	e8 82       	st	Y, r14
    3d2c:	c9 5b       	subi	r28, 0xB9	; 185
    3d2e:	d0 40       	sbci	r29, 0x00	; 0
    3d30:	88 ee       	ldi	r24, 0xE8	; 232
    3d32:	c8 54       	subi	r28, 0x48	; 72
    3d34:	df 4f       	sbci	r29, 0xFF	; 255
    3d36:	88 83       	st	Y, r24
    3d38:	c8 5b       	subi	r28, 0xB8	; 184
    3d3a:	d0 40       	sbci	r29, 0x00	; 0
    3d3c:	ea 86       	std	Y+10, r14	; 0x0a
    3d3e:	0e 5f       	subi	r16, 0xFE	; 254
    3d40:	1f 4f       	sbci	r17, 0xFF	; 255
    3d42:	9e 01       	movw	r18, r28
    3d44:	26 5f       	subi	r18, 0xF6	; 246
    3d46:	3f 4f       	sbci	r19, 0xFF	; 255
    3d48:	ae 01       	movw	r20, r28
    3d4a:	47 54       	subi	r20, 0x47	; 71
    3d4c:	5f 4f       	sbci	r21, 0xFF	; 255
    3d4e:	b5 01       	movw	r22, r10
    3d50:	8c e3       	ldi	r24, 0x3C	; 60
    3d52:	91 e0       	ldi	r25, 0x01	; 1
    3d54:	0e 94 4e 09 	call	0x129c	; 0x129c <_ZN3TWI5writeERKhS1_S1_PS0_>
    3d58:	f6 01       	movw	r30, r12
    3d5a:	80 83       	st	Z, r24
    3d5c:	40 85       	ldd	r20, Z+8	; 0x08
    3d5e:	51 85       	ldd	r21, Z+9	; 0x09
    3d60:	62 85       	ldd	r22, Z+10	; 0x0a
    3d62:	73 85       	ldd	r23, Z+11	; 0x0b
    3d64:	40 32       	cpi	r20, 0x20	; 32
    3d66:	fe e4       	ldi	r31, 0x4E	; 78
    3d68:	5f 07       	cpc	r21, r31
    3d6a:	61 05       	cpc	r22, r1
    3d6c:	71 05       	cpc	r23, r1
    3d6e:	88 f5       	brcc	.+98     	; 0x3dd2 <_ZN7VL53L0X4initEb+0x158e>
    3d70:	42 e0       	ldi	r20, 0x02	; 2
    3d72:	50 e0       	ldi	r21, 0x00	; 0
    3d74:	60 e0       	ldi	r22, 0x00	; 0
    3d76:	70 e0       	ldi	r23, 0x00	; 0
    3d78:	88 e8       	ldi	r24, 0x88	; 136
    3d7a:	91 e0       	ldi	r25, 0x01	; 1
    3d7c:	0e 94 ff 08 	call	0x11fe	; 0x11fe <_ZN4Time5delayEm>
    3d80:	ff 24       	eor	r15, r15
    3d82:	f3 94       	inc	r15
    3d84:	c5 54       	subi	r28, 0x45	; 69
    3d86:	df 4f       	sbci	r29, 0xFF	; 255
    3d88:	f8 82       	st	Y, r15
    3d8a:	cb 5b       	subi	r28, 0xBB	; 187
    3d8c:	d0 40       	sbci	r29, 0x00	; 0
    3d8e:	c6 54       	subi	r28, 0x46	; 70
    3d90:	df 4f       	sbci	r29, 0xFF	; 255
    3d92:	f8 82       	st	Y, r15
    3d94:	ca 5b       	subi	r28, 0xBA	; 186
    3d96:	d0 40       	sbci	r29, 0x00	; 0
    3d98:	fa 86       	std	Y+10, r15	; 0x0a
    3d9a:	8e 01       	movw	r16, r28
    3d9c:	06 54       	subi	r16, 0x46	; 70
    3d9e:	1f 4f       	sbci	r17, 0xFF	; 255
    3da0:	9e 01       	movw	r18, r28
    3da2:	26 5f       	subi	r18, 0xF6	; 246
    3da4:	3f 4f       	sbci	r19, 0xFF	; 255
    3da6:	ae 01       	movw	r20, r28
    3da8:	45 54       	subi	r20, 0x45	; 69
    3daa:	5f 4f       	sbci	r21, 0xFF	; 255
    3dac:	b5 01       	movw	r22, r10
    3dae:	8c e3       	ldi	r24, 0x3C	; 60
    3db0:	91 e0       	ldi	r25, 0x01	; 1
    3db2:	0e 94 4e 09 	call	0x129c	; 0x129c <_ZN3TWI5writeERKhS1_S1_PS0_>
    3db6:	f6 01       	movw	r30, r12
    3db8:	80 83       	st	Z, r24
    3dba:	60 e4       	ldi	r22, 0x40	; 64
    3dbc:	c6 01       	movw	r24, r12
    3dbe:	0e 94 79 13 	call	0x26f2	; 0x26f2 <_ZN7VL53L0X27performSingleRefCalibrationEh>
    3dc2:	81 11       	cpse	r24, r1
    3dc4:	0a c0       	rjmp	.+20     	; 0x3dda <_ZN7VL53L0X4initEb+0x1596>
    3dc6:	83 e0       	ldi	r24, 0x03	; 3
    3dc8:	0c 94 81 15 	jmp	0x2b02	; 0x2b02 <_ZN7VL53L0X4initEb+0x2be>
    3dcc:	4c e0       	ldi	r20, 0x0C	; 12
    3dce:	0c 94 80 16 	jmp	0x2d00	; 0x2d00 <_ZN7VL53L0X4initEb+0x4bc>
    3dd2:	c6 01       	movw	r24, r12
    3dd4:	0e 94 a7 0a 	call	0x154e	; 0x154e <_ZN7VL53L0X26setMeasurementTimingBudgetEm.part.3>
    3dd8:	cb cf       	rjmp	.-106    	; 0x3d70 <_ZN7VL53L0X4initEb+0x152c>
    3dda:	42 e0       	ldi	r20, 0x02	; 2
    3ddc:	50 e0       	ldi	r21, 0x00	; 0
    3dde:	60 e0       	ldi	r22, 0x00	; 0
    3de0:	70 e0       	ldi	r23, 0x00	; 0
    3de2:	88 e8       	ldi	r24, 0x88	; 136
    3de4:	91 e0       	ldi	r25, 0x01	; 1
    3de6:	0e 94 ff 08 	call	0x11fe	; 0x11fe <_ZN4Time5delayEm>
    3dea:	fe 86       	std	Y+14, r15	; 0x0e
    3dec:	82 e0       	ldi	r24, 0x02	; 2
    3dee:	8d 87       	std	Y+13, r24	; 0x0d
    3df0:	fa 86       	std	Y+10, r15	; 0x0a
    3df2:	0d 5a       	subi	r16, 0xAD	; 173
    3df4:	11 09       	sbc	r17, r1
    3df6:	9e 01       	movw	r18, r28
    3df8:	26 5f       	subi	r18, 0xF6	; 246
    3dfa:	3f 4f       	sbci	r19, 0xFF	; 255
    3dfc:	ae 01       	movw	r20, r28
    3dfe:	42 5f       	subi	r20, 0xF2	; 242
    3e00:	5f 4f       	sbci	r21, 0xFF	; 255
    3e02:	b5 01       	movw	r22, r10
    3e04:	8c e3       	ldi	r24, 0x3C	; 60
    3e06:	91 e0       	ldi	r25, 0x01	; 1
    3e08:	0e 94 4e 09 	call	0x129c	; 0x129c <_ZN3TWI5writeERKhS1_S1_PS0_>
    3e0c:	f6 01       	movw	r30, r12
    3e0e:	80 83       	st	Z, r24
    3e10:	60 e0       	ldi	r22, 0x00	; 0
    3e12:	c6 01       	movw	r24, r12
    3e14:	0e 94 79 13 	call	0x26f2	; 0x26f2 <_ZN7VL53L0X27performSingleRefCalibrationEh>
    3e18:	81 11       	cpse	r24, r1
    3e1a:	03 c0       	rjmp	.+6      	; 0x3e22 <_ZN7VL53L0X4initEb+0x15de>
    3e1c:	84 e0       	ldi	r24, 0x04	; 4
    3e1e:	0c 94 81 15 	jmp	0x2b02	; 0x2b02 <_ZN7VL53L0X4initEb+0x2be>
    3e22:	fc 86       	std	Y+12, r15	; 0x0c
    3e24:	88 ee       	ldi	r24, 0xE8	; 232
    3e26:	8b 87       	std	Y+11, r24	; 0x0b
    3e28:	fa 86       	std	Y+10, r15	; 0x0a
    3e2a:	02 50       	subi	r16, 0x02	; 2
    3e2c:	11 09       	sbc	r17, r1
    3e2e:	9e 01       	movw	r18, r28
    3e30:	26 5f       	subi	r18, 0xF6	; 246
    3e32:	3f 4f       	sbci	r19, 0xFF	; 255
    3e34:	ae 01       	movw	r20, r28
    3e36:	44 5f       	subi	r20, 0xF4	; 244
    3e38:	5f 4f       	sbci	r21, 0xFF	; 255
    3e3a:	b5 01       	movw	r22, r10
    3e3c:	8c e3       	ldi	r24, 0x3C	; 60
    3e3e:	91 e0       	ldi	r25, 0x01	; 1
    3e40:	0e 94 4e 09 	call	0x129c	; 0x129c <_ZN3TWI5writeERKhS1_S1_PS0_>
    3e44:	f6 01       	movw	r30, r12
    3e46:	80 83       	st	Z, r24
    3e48:	80 e0       	ldi	r24, 0x00	; 0
    3e4a:	0c 94 81 15 	jmp	0x2b02	; 0x2b02 <_ZN7VL53L0X4initEb+0x2be>

00003e4e <_ZN7VL53L0X19setVcselPulsePeriodENS_15vcselPeriodTypeEh>:
    3e4e:	4f 92       	push	r4
    3e50:	5f 92       	push	r5
    3e52:	6f 92       	push	r6
    3e54:	7f 92       	push	r7
    3e56:	9f 92       	push	r9
    3e58:	af 92       	push	r10
    3e5a:	bf 92       	push	r11
    3e5c:	cf 92       	push	r12
    3e5e:	df 92       	push	r13
    3e60:	ef 92       	push	r14
    3e62:	ff 92       	push	r15
    3e64:	0f 93       	push	r16
    3e66:	1f 93       	push	r17
    3e68:	cf 93       	push	r28
    3e6a:	df 93       	push	r29
    3e6c:	cd b7       	in	r28, 0x3d	; 61
    3e6e:	de b7       	in	r29, 0x3e	; 62
    3e70:	c4 57       	subi	r28, 0x74	; 116
    3e72:	d1 09       	sbc	r29, r1
    3e74:	0f b6       	in	r0, 0x3f	; 63
    3e76:	f8 94       	cli
    3e78:	de bf       	out	0x3e, r29	; 62
    3e7a:	0f be       	out	0x3f, r0	; 63
    3e7c:	cd bf       	out	0x3d, r28	; 61
    3e7e:	7c 01       	movw	r14, r24
    3e80:	66 2e       	mov	r6, r22
    3e82:	74 2e       	mov	r7, r20
    3e84:	54 2e       	mov	r5, r20
    3e86:	56 94       	lsr	r5
    3e88:	5a 94       	dec	r5
    3e8a:	bb 24       	eor	r11, r11
    3e8c:	b3 94       	inc	r11
    3e8e:	b8 a2       	std	Y+32, r11	; 0x20
    3e90:	b9 82       	std	Y+1, r11	; 0x01
    3e92:	6c 01       	movw	r12, r24
    3e94:	2f ef       	ldi	r18, 0xFF	; 255
    3e96:	c2 1a       	sub	r12, r18
    3e98:	d2 0a       	sbc	r13, r18
    3e9a:	8e 01       	movw	r16, r28
    3e9c:	09 5e       	subi	r16, 0xE9	; 233
    3e9e:	1f 4f       	sbci	r17, 0xFF	; 255
    3ea0:	9e 01       	movw	r18, r28
    3ea2:	2f 5f       	subi	r18, 0xFF	; 255
    3ea4:	3f 4f       	sbci	r19, 0xFF	; 255
    3ea6:	ae 01       	movw	r20, r28
    3ea8:	40 5e       	subi	r20, 0xE0	; 224
    3eaa:	5f 4f       	sbci	r21, 0xFF	; 255
    3eac:	b6 01       	movw	r22, r12
    3eae:	8c e3       	ldi	r24, 0x3C	; 60
    3eb0:	91 e0       	ldi	r25, 0x01	; 1
    3eb2:	0e 94 93 09 	call	0x1326	; 0x1326 <_ZN3TWI4readERKhS1_S1_Ph>
    3eb6:	d7 01       	movw	r26, r14
    3eb8:	8c 93       	st	X, r24
    3eba:	8f 89       	ldd	r24, Y+23	; 0x17
    3ebc:	84 fb       	bst	r24, 4
    3ebe:	99 27       	eor	r25, r25
    3ec0:	90 f9       	bld	r25, 0
    3ec2:	9f 8b       	std	Y+23, r25	; 0x17
    3ec4:	83 fb       	bst	r24, 3
    3ec6:	99 27       	eor	r25, r25
    3ec8:	90 f9       	bld	r25, 0
    3eca:	99 8f       	std	Y+25, r25	; 0x19
    3ecc:	82 fb       	bst	r24, 2
    3ece:	99 27       	eor	r25, r25
    3ed0:	90 f9       	bld	r25, 0
    3ed2:	98 8f       	std	Y+24, r25	; 0x18
    3ed4:	86 fb       	bst	r24, 6
    3ed6:	99 27       	eor	r25, r25
    3ed8:	90 f9       	bld	r25, 0
    3eda:	9a 8f       	std	Y+26, r25	; 0x1a
    3edc:	88 1f       	adc	r24, r24
    3ede:	88 27       	eor	r24, r24
    3ee0:	88 1f       	adc	r24, r24
    3ee2:	8b 8f       	std	Y+27, r24	; 0x1b
    3ee4:	ae 01       	movw	r20, r28
    3ee6:	4f 5f       	subi	r20, 0xFF	; 255
    3ee8:	5f 4f       	sbci	r21, 0xFF	; 255
    3eea:	b8 01       	movw	r22, r16
    3eec:	c7 01       	movw	r24, r14
    3eee:	0e 94 e3 11 	call	0x23c6	; 0x23c6 <_ZN7VL53L0X23getSequenceStepTimeoutsEPKNS_19SequenceStepEnablesEPNS_20SequenceStepTimeoutsE>
    3ef2:	61 10       	cpse	r6, r1
    3ef4:	32 c1       	rjmp	.+612    	; 0x415a <_ZN7VL53L0X19setVcselPulsePeriodENS_15vcselPeriodTypeEh+0x30c>
    3ef6:	be e0       	ldi	r27, 0x0E	; 14
    3ef8:	7b 16       	cp	r7, r27
    3efa:	09 f4       	brne	.+2      	; 0x3efe <_ZN7VL53L0X19setVcselPulsePeriodENS_15vcselPeriodTypeEh+0xb0>
    3efc:	d8 c1       	rjmp	.+944    	; 0x42ae <_ZN7VL53L0X19setVcselPulsePeriodENS_15vcselPeriodTypeEh+0x460>
    3efe:	b7 15       	cp	r27, r7
    3f00:	08 f0       	brcs	.+2      	; 0x3f04 <_ZN7VL53L0X19setVcselPulsePeriodENS_15vcselPeriodTypeEh+0xb6>
    3f02:	0c c2       	rjmp	.+1048   	; 0x431c <_ZN7VL53L0X19setVcselPulsePeriodENS_15vcselPeriodTypeEh+0x4ce>
    3f04:	f0 e1       	ldi	r31, 0x10	; 16
    3f06:	7f 16       	cp	r7, r31
    3f08:	09 f4       	brne	.+2      	; 0x3f0c <_ZN7VL53L0X19setVcselPulsePeriodENS_15vcselPeriodTypeEh+0xbe>
    3f0a:	e6 c1       	rjmp	.+972    	; 0x42d8 <_ZN7VL53L0X19setVcselPulsePeriodENS_15vcselPeriodTypeEh+0x48a>
    3f0c:	22 e1       	ldi	r18, 0x12	; 18
    3f0e:	72 12       	cpse	r7, r18
    3f10:	27 c1       	rjmp	.+590    	; 0x4160 <_ZN7VL53L0X19setVcselPulsePeriodENS_15vcselPeriodTypeEh+0x312>
    3f12:	87 e5       	ldi	r24, 0x57	; 87
    3f14:	ab 96       	adiw	r28, 0x2b	; 43
    3f16:	8f af       	std	Y+63, r24	; 0x3f
    3f18:	ab 97       	sbiw	r28, 0x2b	; 43
    3f1a:	80 e5       	ldi	r24, 0x50	; 80
    3f1c:	aa 96       	adiw	r28, 0x2a	; 42
    3f1e:	8f af       	std	Y+63, r24	; 0x3f
    3f20:	aa 97       	sbiw	r28, 0x2a	; 42
    3f22:	bc 8e       	std	Y+28, r11	; 0x1c
    3f24:	5e 01       	movw	r10, r28
    3f26:	bc e1       	ldi	r27, 0x1C	; 28
    3f28:	ab 0e       	add	r10, r27
    3f2a:	b1 1c       	adc	r11, r1
    3f2c:	8e 01       	movw	r16, r28
    3f2e:	07 59       	subi	r16, 0x97	; 151
    3f30:	1f 4f       	sbci	r17, 0xFF	; 255
    3f32:	95 01       	movw	r18, r10
    3f34:	ae 01       	movw	r20, r28
    3f36:	46 59       	subi	r20, 0x96	; 150
    3f38:	5f 4f       	sbci	r21, 0xFF	; 255
    3f3a:	b6 01       	movw	r22, r12
    3f3c:	8c e3       	ldi	r24, 0x3C	; 60
    3f3e:	91 e0       	ldi	r25, 0x01	; 1
    3f40:	0e 94 4e 09 	call	0x129c	; 0x129c <_ZN3TWI5writeERKhS1_S1_PS0_>
    3f44:	f7 01       	movw	r30, r14
    3f46:	80 83       	st	Z, r24
    3f48:	86 e5       	ldi	r24, 0x56	; 86
    3f4a:	a6 96       	adiw	r28, 0x26	; 38
    3f4c:	8f af       	std	Y+63, r24	; 0x3f
    3f4e:	a6 97       	sbiw	r28, 0x26	; 38
    3f50:	88 e0       	ldi	r24, 0x08	; 8
    3f52:	a5 96       	adiw	r28, 0x25	; 37
    3f54:	8f af       	std	Y+63, r24	; 0x3f
    3f56:	a5 97       	sbiw	r28, 0x25	; 37
    3f58:	66 24       	eor	r6, r6
    3f5a:	63 94       	inc	r6
    3f5c:	6c 8e       	std	Y+28, r6	; 0x1c
    3f5e:	8e 01       	movw	r16, r28
    3f60:	0c 59       	subi	r16, 0x9C	; 156
    3f62:	1f 4f       	sbci	r17, 0xFF	; 255
    3f64:	95 01       	movw	r18, r10
    3f66:	ae 01       	movw	r20, r28
    3f68:	4b 59       	subi	r20, 0x9B	; 155
    3f6a:	5f 4f       	sbci	r21, 0xFF	; 255
    3f6c:	b6 01       	movw	r22, r12
    3f6e:	8c e3       	ldi	r24, 0x3C	; 60
    3f70:	91 e0       	ldi	r25, 0x01	; 1
    3f72:	0e 94 4e 09 	call	0x129c	; 0x129c <_ZN3TWI5writeERKhS1_S1_PS0_>
    3f76:	d7 01       	movw	r26, r14
    3f78:	8c 93       	st	X, r24
    3f7a:	80 e5       	ldi	r24, 0x50	; 80
    3f7c:	a8 96       	adiw	r28, 0x28	; 40
    3f7e:	8f af       	std	Y+63, r24	; 0x3f
    3f80:	a8 97       	sbiw	r28, 0x28	; 40
    3f82:	a7 96       	adiw	r28, 0x27	; 39
    3f84:	5f ae       	std	Y+63, r5	; 0x3f
    3f86:	a7 97       	sbiw	r28, 0x27	; 39
    3f88:	6c 8e       	std	Y+28, r6	; 0x1c
    3f8a:	0e 5f       	subi	r16, 0xFE	; 254
    3f8c:	1f 4f       	sbci	r17, 0xFF	; 255
    3f8e:	95 01       	movw	r18, r10
    3f90:	ae 01       	movw	r20, r28
    3f92:	49 59       	subi	r20, 0x99	; 153
    3f94:	5f 4f       	sbci	r21, 0xFF	; 255
    3f96:	b6 01       	movw	r22, r12
    3f98:	8c e3       	ldi	r24, 0x3C	; 60
    3f9a:	91 e0       	ldi	r25, 0x01	; 1
    3f9c:	0e 94 4e 09 	call	0x129c	; 0x129c <_ZN3TWI5writeERKhS1_S1_PS0_>
    3fa0:	f7 01       	movw	r30, r14
    3fa2:	80 83       	st	Z, r24
    3fa4:	a7 2d       	mov	r26, r7
    3fa6:	b0 e0       	ldi	r27, 0x00	; 0
    3fa8:	20 e0       	ldi	r18, 0x00	; 0
    3faa:	3f e2       	ldi	r19, 0x2F	; 47
    3fac:	4a e3       	ldi	r20, 0x3A	; 58
    3fae:	50 e0       	ldi	r21, 0x00	; 0
    3fb0:	0e 94 6e 24 	call	0x48dc	; 0x48dc <__muluhisi3>
    3fb4:	2b 01       	movw	r4, r22
    3fb6:	3c 01       	movw	r6, r24
    3fb8:	f4 ef       	ldi	r31, 0xF4	; 244
    3fba:	4f 0e       	add	r4, r31
    3fbc:	f1 e0       	ldi	r31, 0x01	; 1
    3fbe:	5f 1e       	adc	r5, r31
    3fc0:	61 1c       	adc	r6, r1
    3fc2:	71 1c       	adc	r7, r1
    3fc4:	c3 01       	movw	r24, r6
    3fc6:	b2 01       	movw	r22, r4
    3fc8:	28 ee       	ldi	r18, 0xE8	; 232
    3fca:	33 e0       	ldi	r19, 0x03	; 3
    3fcc:	40 e0       	ldi	r20, 0x00	; 0
    3fce:	50 e0       	ldi	r21, 0x00	; 0
    3fd0:	0e 94 46 24 	call	0x488c	; 0x488c <__udivmodsi4>
    3fd4:	e5 96       	adiw	r28, 0x35	; 53
    3fd6:	2c af       	std	Y+60, r18	; 0x3c
    3fd8:	3d af       	std	Y+61, r19	; 0x3d
    3fda:	4e af       	std	Y+62, r20	; 0x3e
    3fdc:	5f af       	std	Y+63, r21	; 0x3f
    3fde:	e5 97       	sbiw	r28, 0x35	; 53
    3fe0:	c3 01       	movw	r24, r6
    3fe2:	b2 01       	movw	r22, r4
    3fe4:	20 ed       	ldi	r18, 0xD0	; 208
    3fe6:	37 e0       	ldi	r19, 0x07	; 7
    3fe8:	40 e0       	ldi	r20, 0x00	; 0
    3fea:	50 e0       	ldi	r21, 0x00	; 0
    3fec:	0e 94 46 24 	call	0x488c	; 0x488c <__udivmodsi4>
    3ff0:	29 01       	movw	r4, r18
    3ff2:	3a 01       	movw	r6, r20
    3ff4:	2f 85       	ldd	r18, Y+15	; 0x0f
    3ff6:	38 89       	ldd	r19, Y+16	; 0x10
    3ff8:	49 89       	ldd	r20, Y+17	; 0x11
    3ffa:	5a 89       	ldd	r21, Y+18	; 0x12
    3ffc:	a8 ee       	ldi	r26, 0xE8	; 232
    3ffe:	b3 e0       	ldi	r27, 0x03	; 3
    4000:	0e 94 6e 24 	call	0x48dc	; 0x48dc <__muluhisi3>
    4004:	64 0d       	add	r22, r4
    4006:	75 1d       	adc	r23, r5
    4008:	86 1d       	adc	r24, r6
    400a:	97 1d       	adc	r25, r7
    400c:	e5 96       	adiw	r28, 0x35	; 53
    400e:	2c ad       	ldd	r18, Y+60	; 0x3c
    4010:	3d ad       	ldd	r19, Y+61	; 0x3d
    4012:	4e ad       	ldd	r20, Y+62	; 0x3e
    4014:	5f ad       	ldd	r21, Y+63	; 0x3f
    4016:	e5 97       	sbiw	r28, 0x35	; 53
    4018:	0e 94 46 24 	call	0x488c	; 0x488c <__udivmodsi4>
    401c:	21 15       	cp	r18, r1
    401e:	31 05       	cpc	r19, r1
    4020:	09 f0       	breq	.+2      	; 0x4024 <_ZN7VL53L0X19setVcselPulsePeriodENS_15vcselPeriodTypeEh+0x1d6>
    4022:	94 c1       	rjmp	.+808    	; 0x434c <_ZN7VL53L0X19setVcselPulsePeriodENS_15vcselPeriodTypeEh+0x4fe>
    4024:	80 e0       	ldi	r24, 0x00	; 0
    4026:	90 e0       	ldi	r25, 0x00	; 0
    4028:	21 e5       	ldi	r18, 0x51	; 81
    402a:	a9 96       	adiw	r28, 0x29	; 41
    402c:	2f af       	std	Y+63, r18	; 0x3f
    402e:	a9 97       	sbiw	r28, 0x29	; 41
    4030:	9f 8f       	std	Y+31, r25	; 0x1f
    4032:	8e 8f       	std	Y+30, r24	; 0x1e
    4034:	82 e0       	ldi	r24, 0x02	; 2
    4036:	8c 8f       	std	Y+28, r24	; 0x1c
    4038:	8e 01       	movw	r16, r28
    403a:	02 5e       	subi	r16, 0xE2	; 226
    403c:	1f 4f       	sbci	r17, 0xFF	; 255
    403e:	95 01       	movw	r18, r10
    4040:	ae 01       	movw	r20, r28
    4042:	48 59       	subi	r20, 0x98	; 152
    4044:	5f 4f       	sbci	r21, 0xFF	; 255
    4046:	b6 01       	movw	r22, r12
    4048:	8c e3       	ldi	r24, 0x3C	; 60
    404a:	91 e0       	ldi	r25, 0x01	; 1
    404c:	0e 94 4e 09 	call	0x129c	; 0x129c <_ZN3TWI5writeERKhS1_S1_PS0_>
    4050:	d7 01       	movw	r26, r14
    4052:	8c 93       	st	X, r24
    4054:	2b 85       	ldd	r18, Y+11	; 0x0b
    4056:	3c 85       	ldd	r19, Y+12	; 0x0c
    4058:	4d 85       	ldd	r20, Y+13	; 0x0d
    405a:	5e 85       	ldd	r21, Y+14	; 0x0e
    405c:	a8 ee       	ldi	r26, 0xE8	; 232
    405e:	b3 e0       	ldi	r27, 0x03	; 3
    4060:	0e 94 6e 24 	call	0x48dc	; 0x48dc <__muluhisi3>
    4064:	64 0d       	add	r22, r4
    4066:	75 1d       	adc	r23, r5
    4068:	86 1d       	adc	r24, r6
    406a:	97 1d       	adc	r25, r7
    406c:	e5 96       	adiw	r28, 0x35	; 53
    406e:	2c ad       	ldd	r18, Y+60	; 0x3c
    4070:	3d ad       	ldd	r19, Y+61	; 0x3d
    4072:	4e ad       	ldd	r20, Y+62	; 0x3e
    4074:	5f ad       	ldd	r21, Y+63	; 0x3f
    4076:	e5 97       	sbiw	r28, 0x35	; 53
    4078:	0e 94 46 24 	call	0x488c	; 0x488c <__udivmodsi4>
    407c:	21 30       	cpi	r18, 0x01	; 1
    407e:	b1 e0       	ldi	r27, 0x01	; 1
    4080:	3b 07       	cpc	r19, r27
    4082:	08 f0       	brcs	.+2      	; 0x4086 <_ZN7VL53L0X19setVcselPulsePeriodENS_15vcselPeriodTypeEh+0x238>
    4084:	45 c1       	rjmp	.+650    	; 0x4310 <_ZN7VL53L0X19setVcselPulsePeriodENS_15vcselPeriodTypeEh+0x4c2>
    4086:	21 50       	subi	r18, 0x01	; 1
    4088:	86 e4       	ldi	r24, 0x46	; 70
    408a:	a4 96       	adiw	r28, 0x24	; 36
    408c:	8f af       	std	Y+63, r24	; 0x3f
    408e:	a4 97       	sbiw	r28, 0x24	; 36
    4090:	a3 96       	adiw	r28, 0x23	; 35
    4092:	2f af       	std	Y+63, r18	; 0x3f
    4094:	a3 97       	sbiw	r28, 0x23	; 35
    4096:	81 e0       	ldi	r24, 0x01	; 1
    4098:	8c 8f       	std	Y+28, r24	; 0x1c
    409a:	8e 01       	movw	r16, r28
    409c:	0e 59       	subi	r16, 0x9E	; 158
    409e:	1f 4f       	sbci	r17, 0xFF	; 255
    40a0:	95 01       	movw	r18, r10
    40a2:	ae 01       	movw	r20, r28
    40a4:	4d 59       	subi	r20, 0x9D	; 157
    40a6:	5f 4f       	sbci	r21, 0xFF	; 255
    40a8:	b6 01       	movw	r22, r12
    40aa:	8c e3       	ldi	r24, 0x3C	; 60
    40ac:	91 e0       	ldi	r25, 0x01	; 1
    40ae:	0e 94 4e 09 	call	0x129c	; 0x129c <_ZN3TWI5writeERKhS1_S1_PS0_>
    40b2:	f7 01       	movw	r30, r14
    40b4:	80 83       	st	Z, r24
    40b6:	f7 01       	movw	r30, r14
    40b8:	40 85       	ldd	r20, Z+8	; 0x08
    40ba:	51 85       	ldd	r21, Z+9	; 0x09
    40bc:	62 85       	ldd	r22, Z+10	; 0x0a
    40be:	73 85       	ldd	r23, Z+11	; 0x0b
    40c0:	40 32       	cpi	r20, 0x20	; 32
    40c2:	fe e4       	ldi	r31, 0x4E	; 78
    40c4:	5f 07       	cpc	r21, r31
    40c6:	61 05       	cpc	r22, r1
    40c8:	71 05       	cpc	r23, r1
    40ca:	08 f0       	brcs	.+2      	; 0x40ce <_ZN7VL53L0X19setVcselPulsePeriodENS_15vcselPeriodTypeEh+0x280>
    40cc:	23 c1       	rjmp	.+582    	; 0x4314 <_ZN7VL53L0X19setVcselPulsePeriodENS_15vcselPeriodTypeEh+0x4c6>
    40ce:	42 e0       	ldi	r20, 0x02	; 2
    40d0:	50 e0       	ldi	r21, 0x00	; 0
    40d2:	60 e0       	ldi	r22, 0x00	; 0
    40d4:	70 e0       	ldi	r23, 0x00	; 0
    40d6:	88 e8       	ldi	r24, 0x88	; 136
    40d8:	91 e0       	ldi	r25, 0x01	; 1
    40da:	0e 94 ff 08 	call	0x11fe	; 0x11fe <_ZN4Time5delayEm>
    40de:	bb 24       	eor	r11, r11
    40e0:	b3 94       	inc	r11
    40e2:	bb a2       	std	Y+35, r11	; 0x23
    40e4:	b9 a2       	std	Y+33, r11	; 0x21
    40e6:	8e 01       	movw	r16, r28
    40e8:	0e 5d       	subi	r16, 0xDE	; 222
    40ea:	1f 4f       	sbci	r17, 0xFF	; 255
    40ec:	9e 01       	movw	r18, r28
    40ee:	2f 5d       	subi	r18, 0xDF	; 223
    40f0:	3f 4f       	sbci	r19, 0xFF	; 255
    40f2:	ae 01       	movw	r20, r28
    40f4:	4d 5d       	subi	r20, 0xDD	; 221
    40f6:	5f 4f       	sbci	r21, 0xFF	; 255
    40f8:	b6 01       	movw	r22, r12
    40fa:	8c e3       	ldi	r24, 0x3C	; 60
    40fc:	91 e0       	ldi	r25, 0x01	; 1
    40fe:	0e 94 93 09 	call	0x1326	; 0x1326 <_ZN3TWI4readERKhS1_S1_Ph>
    4102:	d7 01       	movw	r26, r14
    4104:	8c 93       	st	X, r24
    4106:	aa a0       	ldd	r10, Y+34	; 0x22
    4108:	bc a2       	std	Y+36, r11	; 0x24
    410a:	82 e0       	ldi	r24, 0x02	; 2
    410c:	8a a3       	std	Y+34, r24	; 0x22
    410e:	b9 a2       	std	Y+33, r11	; 0x21
    4110:	9e 01       	movw	r18, r28
    4112:	2f 5d       	subi	r18, 0xDF	; 223
    4114:	3f 4f       	sbci	r19, 0xFF	; 255
    4116:	ae 01       	movw	r20, r28
    4118:	4c 5d       	subi	r20, 0xDC	; 220
    411a:	5f 4f       	sbci	r21, 0xFF	; 255
    411c:	b6 01       	movw	r22, r12
    411e:	8c e3       	ldi	r24, 0x3C	; 60
    4120:	91 e0       	ldi	r25, 0x01	; 1
    4122:	0e 94 4e 09 	call	0x129c	; 0x129c <_ZN3TWI5writeERKhS1_S1_PS0_>
    4126:	f7 01       	movw	r30, r14
    4128:	80 83       	st	Z, r24
    412a:	60 e0       	ldi	r22, 0x00	; 0
    412c:	c7 01       	movw	r24, r14
    412e:	0e 94 79 13 	call	0x26f2	; 0x26f2 <_ZN7VL53L0X27performSingleRefCalibrationEh>
    4132:	be a2       	std	Y+38, r11	; 0x26
    4134:	ad a2       	std	Y+37, r10	; 0x25
    4136:	b9 a2       	std	Y+33, r11	; 0x21
    4138:	0d 5f       	subi	r16, 0xFD	; 253
    413a:	1f 4f       	sbci	r17, 0xFF	; 255
    413c:	9e 01       	movw	r18, r28
    413e:	2f 5d       	subi	r18, 0xDF	; 223
    4140:	3f 4f       	sbci	r19, 0xFF	; 255
    4142:	ae 01       	movw	r20, r28
    4144:	4a 5d       	subi	r20, 0xDA	; 218
    4146:	5f 4f       	sbci	r21, 0xFF	; 255
    4148:	b6 01       	movw	r22, r12
    414a:	8c e3       	ldi	r24, 0x3C	; 60
    414c:	91 e0       	ldi	r25, 0x01	; 1
    414e:	0e 94 4e 09 	call	0x129c	; 0x129c <_ZN3TWI5writeERKhS1_S1_PS0_>
    4152:	d7 01       	movw	r26, r14
    4154:	8c 93       	st	X, r24
    4156:	81 e0       	ldi	r24, 0x01	; 1
    4158:	04 c0       	rjmp	.+8      	; 0x4162 <_ZN7VL53L0X19setVcselPulsePeriodENS_15vcselPeriodTypeEh+0x314>
    415a:	f1 e0       	ldi	r31, 0x01	; 1
    415c:	6f 16       	cp	r6, r31
    415e:	c1 f0       	breq	.+48     	; 0x4190 <_ZN7VL53L0X19setVcselPulsePeriodENS_15vcselPeriodTypeEh+0x342>
    4160:	80 e0       	ldi	r24, 0x00	; 0
    4162:	cc 58       	subi	r28, 0x8C	; 140
    4164:	df 4f       	sbci	r29, 0xFF	; 255
    4166:	0f b6       	in	r0, 0x3f	; 63
    4168:	f8 94       	cli
    416a:	de bf       	out	0x3e, r29	; 62
    416c:	0f be       	out	0x3f, r0	; 63
    416e:	cd bf       	out	0x3d, r28	; 61
    4170:	df 91       	pop	r29
    4172:	cf 91       	pop	r28
    4174:	1f 91       	pop	r17
    4176:	0f 91       	pop	r16
    4178:	ff 90       	pop	r15
    417a:	ef 90       	pop	r14
    417c:	df 90       	pop	r13
    417e:	cf 90       	pop	r12
    4180:	bf 90       	pop	r11
    4182:	af 90       	pop	r10
    4184:	9f 90       	pop	r9
    4186:	7f 90       	pop	r7
    4188:	6f 90       	pop	r6
    418a:	5f 90       	pop	r5
    418c:	4f 90       	pop	r4
    418e:	08 95       	ret
    4190:	2a e0       	ldi	r18, 0x0A	; 10
    4192:	72 16       	cp	r7, r18
    4194:	09 f4       	brne	.+2      	; 0x4198 <_ZN7VL53L0X19setVcselPulsePeriodENS_15vcselPeriodTypeEh+0x34a>
    4196:	b7 c2       	rjmp	.+1390   	; 0x4706 <_ZN7VL53L0X19setVcselPulsePeriodENS_15vcselPeriodTypeEh+0x8b8>
    4198:	27 15       	cp	r18, r7
    419a:	08 f0       	brcs	.+2      	; 0x419e <_ZN7VL53L0X19setVcselPulsePeriodENS_15vcselPeriodTypeEh+0x350>
    419c:	f7 c0       	rjmp	.+494    	; 0x438c <_ZN7VL53L0X19setVcselPulsePeriodENS_15vcselPeriodTypeEh+0x53e>
    419e:	9c e0       	ldi	r25, 0x0C	; 12
    41a0:	79 16       	cp	r7, r25
    41a2:	09 f4       	brne	.+2      	; 0x41a6 <_ZN7VL53L0X19setVcselPulsePeriodENS_15vcselPeriodTypeEh+0x358>
    41a4:	29 c2       	rjmp	.+1106   	; 0x45f8 <_ZN7VL53L0X19setVcselPulsePeriodENS_15vcselPeriodTypeEh+0x7aa>
    41a6:	ae e0       	ldi	r26, 0x0E	; 14
    41a8:	7a 12       	cpse	r7, r26
    41aa:	da cf       	rjmp	.-76     	; 0x4160 <_ZN7VL53L0X19setVcselPulsePeriodENS_15vcselPeriodTypeEh+0x312>
    41ac:	88 e4       	ldi	r24, 0x48	; 72
    41ae:	8b a7       	std	Y+43, r24	; 0x2b
    41b0:	8a a7       	std	Y+42, r24	; 0x2a
    41b2:	6c 8e       	std	Y+28, r6	; 0x1c
    41b4:	5e 01       	movw	r10, r28
    41b6:	fc e1       	ldi	r31, 0x1C	; 28
    41b8:	af 0e       	add	r10, r31
    41ba:	b1 1c       	adc	r11, r1
    41bc:	8e 01       	movw	r16, r28
    41be:	06 5d       	subi	r16, 0xD6	; 214
    41c0:	1f 4f       	sbci	r17, 0xFF	; 255
    41c2:	95 01       	movw	r18, r10
    41c4:	ae 01       	movw	r20, r28
    41c6:	45 5d       	subi	r20, 0xD5	; 213
    41c8:	5f 4f       	sbci	r21, 0xFF	; 255
    41ca:	b6 01       	movw	r22, r12
    41cc:	8c e3       	ldi	r24, 0x3C	; 60
    41ce:	91 e0       	ldi	r25, 0x01	; 1
    41d0:	0e 94 4e 09 	call	0x129c	; 0x129c <_ZN3TWI5writeERKhS1_S1_PS0_>
    41d4:	d7 01       	movw	r26, r14
    41d6:	8c 93       	st	X, r24
    41d8:	87 e4       	ldi	r24, 0x47	; 71
    41da:	8d a7       	std	Y+45, r24	; 0x2d
    41dc:	88 e0       	ldi	r24, 0x08	; 8
    41de:	8c a7       	std	Y+44, r24	; 0x2c
    41e0:	6c 8e       	std	Y+28, r6	; 0x1c
    41e2:	0e 5f       	subi	r16, 0xFE	; 254
    41e4:	1f 4f       	sbci	r17, 0xFF	; 255
    41e6:	95 01       	movw	r18, r10
    41e8:	ae 01       	movw	r20, r28
    41ea:	43 5d       	subi	r20, 0xD3	; 211
    41ec:	5f 4f       	sbci	r21, 0xFF	; 255
    41ee:	b6 01       	movw	r22, r12
    41f0:	8c e3       	ldi	r24, 0x3C	; 60
    41f2:	91 e0       	ldi	r25, 0x01	; 1
    41f4:	0e 94 4e 09 	call	0x129c	; 0x129c <_ZN3TWI5writeERKhS1_S1_PS0_>
    41f8:	f7 01       	movw	r30, r14
    41fa:	80 83       	st	Z, r24
    41fc:	82 e3       	ldi	r24, 0x32	; 50
    41fe:	8f a7       	std	Y+47, r24	; 0x2f
    4200:	83 e0       	ldi	r24, 0x03	; 3
    4202:	8e a7       	std	Y+46, r24	; 0x2e
    4204:	6c 8e       	std	Y+28, r6	; 0x1c
    4206:	0e 5f       	subi	r16, 0xFE	; 254
    4208:	1f 4f       	sbci	r17, 0xFF	; 255
    420a:	95 01       	movw	r18, r10
    420c:	ae 01       	movw	r20, r28
    420e:	41 5d       	subi	r20, 0xD1	; 209
    4210:	5f 4f       	sbci	r21, 0xFF	; 255
    4212:	b6 01       	movw	r22, r12
    4214:	8c e3       	ldi	r24, 0x3C	; 60
    4216:	91 e0       	ldi	r25, 0x01	; 1
    4218:	0e 94 4e 09 	call	0x129c	; 0x129c <_ZN3TWI5writeERKhS1_S1_PS0_>
    421c:	d7 01       	movw	r26, r14
    421e:	8c 93       	st	X, r24
    4220:	60 e3       	ldi	r22, 0x30	; 48
    4222:	96 2e       	mov	r9, r22
    4224:	99 aa       	std	Y+49, r9	; 0x31
    4226:	87 e0       	ldi	r24, 0x07	; 7
    4228:	88 ab       	std	Y+48, r24	; 0x30
    422a:	6c 8e       	std	Y+28, r6	; 0x1c
    422c:	0e 5f       	subi	r16, 0xFE	; 254
    422e:	1f 4f       	sbci	r17, 0xFF	; 255
    4230:	95 01       	movw	r18, r10
    4232:	ae 01       	movw	r20, r28
    4234:	4f 5c       	subi	r20, 0xCF	; 207
    4236:	5f 4f       	sbci	r21, 0xFF	; 255
    4238:	b6 01       	movw	r22, r12
    423a:	8c e3       	ldi	r24, 0x3C	; 60
    423c:	91 e0       	ldi	r25, 0x01	; 1
    423e:	0e 94 4e 09 	call	0x129c	; 0x129c <_ZN3TWI5writeERKhS1_S1_PS0_>
    4242:	f7 01       	movw	r30, r14
    4244:	80 83       	st	Z, r24
    4246:	44 24       	eor	r4, r4
    4248:	4a 94       	dec	r4
    424a:	4b aa       	std	Y+51, r4	; 0x33
    424c:	6a aa       	std	Y+50, r6	; 0x32
    424e:	6c 8e       	std	Y+28, r6	; 0x1c
    4250:	0e 5f       	subi	r16, 0xFE	; 254
    4252:	1f 4f       	sbci	r17, 0xFF	; 255
    4254:	95 01       	movw	r18, r10
    4256:	ae 01       	movw	r20, r28
    4258:	4d 5c       	subi	r20, 0xCD	; 205
    425a:	5f 4f       	sbci	r21, 0xFF	; 255
    425c:	b6 01       	movw	r22, r12
    425e:	8c e3       	ldi	r24, 0x3C	; 60
    4260:	91 e0       	ldi	r25, 0x01	; 1
    4262:	0e 94 4e 09 	call	0x129c	; 0x129c <_ZN3TWI5writeERKhS1_S1_PS0_>
    4266:	d7 01       	movw	r26, r14
    4268:	8c 93       	st	X, r24
    426a:	9d aa       	std	Y+53, r9	; 0x35
    426c:	80 e2       	ldi	r24, 0x20	; 32
    426e:	8c ab       	std	Y+52, r24	; 0x34
    4270:	6c 8e       	std	Y+28, r6	; 0x1c
    4272:	0e 5f       	subi	r16, 0xFE	; 254
    4274:	1f 4f       	sbci	r17, 0xFF	; 255
    4276:	95 01       	movw	r18, r10
    4278:	ae 01       	movw	r20, r28
    427a:	4b 5c       	subi	r20, 0xCB	; 203
    427c:	5f 4f       	sbci	r21, 0xFF	; 255
    427e:	b6 01       	movw	r22, r12
    4280:	8c e3       	ldi	r24, 0x3C	; 60
    4282:	91 e0       	ldi	r25, 0x01	; 1
    4284:	0e 94 4e 09 	call	0x129c	; 0x129c <_ZN3TWI5writeERKhS1_S1_PS0_>
    4288:	f7 01       	movw	r30, r14
    428a:	80 83       	st	Z, r24
    428c:	4f aa       	std	Y+55, r4	; 0x37
    428e:	1e aa       	std	Y+54, r1	; 0x36
    4290:	6c 8e       	std	Y+28, r6	; 0x1c
    4292:	0e 5f       	subi	r16, 0xFE	; 254
    4294:	1f 4f       	sbci	r17, 0xFF	; 255
    4296:	95 01       	movw	r18, r10
    4298:	ae 01       	movw	r20, r28
    429a:	49 5c       	subi	r20, 0xC9	; 201
    429c:	5f 4f       	sbci	r21, 0xFF	; 255
    429e:	b6 01       	movw	r22, r12
    42a0:	8c e3       	ldi	r24, 0x3C	; 60
    42a2:	91 e0       	ldi	r25, 0x01	; 1
    42a4:	0e 94 4e 09 	call	0x129c	; 0x129c <_ZN3TWI5writeERKhS1_S1_PS0_>
    42a8:	d7 01       	movw	r26, r14
    42aa:	8c 93       	st	X, r24
    42ac:	0d c1       	rjmp	.+538    	; 0x44c8 <_ZN7VL53L0X19setVcselPulsePeriodENS_15vcselPeriodTypeEh+0x67a>
    42ae:	87 e5       	ldi	r24, 0x57	; 87
    42b0:	af 96       	adiw	r28, 0x2f	; 47
    42b2:	8f af       	std	Y+63, r24	; 0x3f
    42b4:	af 97       	sbiw	r28, 0x2f	; 47
    42b6:	80 e3       	ldi	r24, 0x30	; 48
    42b8:	ae 96       	adiw	r28, 0x2e	; 46
    42ba:	8f af       	std	Y+63, r24	; 0x3f
    42bc:	ae 97       	sbiw	r28, 0x2e	; 46
    42be:	bc 8e       	std	Y+28, r11	; 0x1c
    42c0:	5e 01       	movw	r10, r28
    42c2:	bc e1       	ldi	r27, 0x1C	; 28
    42c4:	ab 0e       	add	r10, r27
    42c6:	b1 1c       	adc	r11, r1
    42c8:	8e 01       	movw	r16, r28
    42ca:	03 59       	subi	r16, 0x93	; 147
    42cc:	1f 4f       	sbci	r17, 0xFF	; 255
    42ce:	95 01       	movw	r18, r10
    42d0:	ae 01       	movw	r20, r28
    42d2:	42 59       	subi	r20, 0x92	; 146
    42d4:	5f 4f       	sbci	r21, 0xFF	; 255
    42d6:	31 ce       	rjmp	.-926    	; 0x3f3a <_ZN7VL53L0X19setVcselPulsePeriodENS_15vcselPeriodTypeEh+0xec>
    42d8:	87 e5       	ldi	r24, 0x57	; 87
    42da:	ad 96       	adiw	r28, 0x2d	; 45
    42dc:	8f af       	std	Y+63, r24	; 0x3f
    42de:	ad 97       	sbiw	r28, 0x2d	; 45
    42e0:	80 e4       	ldi	r24, 0x40	; 64
    42e2:	ac 96       	adiw	r28, 0x2c	; 44
    42e4:	8f af       	std	Y+63, r24	; 0x3f
    42e6:	ac 97       	sbiw	r28, 0x2c	; 44
    42e8:	bc 8e       	std	Y+28, r11	; 0x1c
    42ea:	5e 01       	movw	r10, r28
    42ec:	fc e1       	ldi	r31, 0x1C	; 28
    42ee:	af 0e       	add	r10, r31
    42f0:	b1 1c       	adc	r11, r1
    42f2:	8e 01       	movw	r16, r28
    42f4:	05 59       	subi	r16, 0x95	; 149
    42f6:	1f 4f       	sbci	r17, 0xFF	; 255
    42f8:	95 01       	movw	r18, r10
    42fa:	ae 01       	movw	r20, r28
    42fc:	44 59       	subi	r20, 0x94	; 148
    42fe:	5f 4f       	sbci	r21, 0xFF	; 255
    4300:	b6 01       	movw	r22, r12
    4302:	8c e3       	ldi	r24, 0x3C	; 60
    4304:	91 e0       	ldi	r25, 0x01	; 1
    4306:	0e 94 4e 09 	call	0x129c	; 0x129c <_ZN3TWI5writeERKhS1_S1_PS0_>
    430a:	d7 01       	movw	r26, r14
    430c:	8c 93       	st	X, r24
    430e:	1c ce       	rjmp	.-968    	; 0x3f48 <_ZN7VL53L0X19setVcselPulsePeriodENS_15vcselPeriodTypeEh+0xfa>
    4310:	2f ef       	ldi	r18, 0xFF	; 255
    4312:	ba ce       	rjmp	.-652    	; 0x4088 <_ZN7VL53L0X19setVcselPulsePeriodENS_15vcselPeriodTypeEh+0x23a>
    4314:	c7 01       	movw	r24, r14
    4316:	0e 94 a7 0a 	call	0x154e	; 0x154e <_ZN7VL53L0X26setMeasurementTimingBudgetEm.part.3>
    431a:	d9 ce       	rjmp	.-590    	; 0x40ce <_ZN7VL53L0X19setVcselPulsePeriodENS_15vcselPeriodTypeEh+0x280>
    431c:	ec e0       	ldi	r30, 0x0C	; 12
    431e:	7e 12       	cpse	r7, r30
    4320:	1f cf       	rjmp	.-450    	; 0x4160 <_ZN7VL53L0X19setVcselPulsePeriodENS_15vcselPeriodTypeEh+0x312>
    4322:	87 e5       	ldi	r24, 0x57	; 87
    4324:	e1 96       	adiw	r28, 0x31	; 49
    4326:	8f af       	std	Y+63, r24	; 0x3f
    4328:	e1 97       	sbiw	r28, 0x31	; 49
    432a:	88 e1       	ldi	r24, 0x18	; 24
    432c:	e0 96       	adiw	r28, 0x30	; 48
    432e:	8f af       	std	Y+63, r24	; 0x3f
    4330:	e0 97       	sbiw	r28, 0x30	; 48
    4332:	bc 8e       	std	Y+28, r11	; 0x1c
    4334:	5e 01       	movw	r10, r28
    4336:	8c e1       	ldi	r24, 0x1C	; 28
    4338:	a8 0e       	add	r10, r24
    433a:	b1 1c       	adc	r11, r1
    433c:	8e 01       	movw	r16, r28
    433e:	01 59       	subi	r16, 0x91	; 145
    4340:	1f 4f       	sbci	r17, 0xFF	; 255
    4342:	95 01       	movw	r18, r10
    4344:	ae 01       	movw	r20, r28
    4346:	40 59       	subi	r20, 0x90	; 144
    4348:	5f 4f       	sbci	r21, 0xFF	; 255
    434a:	da cf       	rjmp	.-76     	; 0x4300 <_ZN7VL53L0X19setVcselPulsePeriodENS_15vcselPeriodTypeEh+0x4b2>
    434c:	21 50       	subi	r18, 0x01	; 1
    434e:	31 09       	sbc	r19, r1
    4350:	c9 01       	movw	r24, r18
    4352:	a0 e0       	ldi	r26, 0x00	; 0
    4354:	b0 e0       	ldi	r27, 0x00	; 0
    4356:	ac 01       	movw	r20, r24
    4358:	bd 01       	movw	r22, r26
    435a:	44 27       	eor	r20, r20
    435c:	20 e0       	ldi	r18, 0x00	; 0
    435e:	30 e0       	ldi	r19, 0x00	; 0
    4360:	45 2b       	or	r20, r21
    4362:	46 2b       	or	r20, r22
    4364:	47 2b       	or	r20, r23
    4366:	79 f0       	breq	.+30     	; 0x4386 <_ZN7VL53L0X19setVcselPulsePeriodENS_15vcselPeriodTypeEh+0x538>
    4368:	b6 95       	lsr	r27
    436a:	a7 95       	ror	r26
    436c:	97 95       	ror	r25
    436e:	87 95       	ror	r24
    4370:	2f 5f       	subi	r18, 0xFF	; 255
    4372:	3f 4f       	sbci	r19, 0xFF	; 255
    4374:	ac 01       	movw	r20, r24
    4376:	bd 01       	movw	r22, r26
    4378:	44 27       	eor	r20, r20
    437a:	45 2b       	or	r20, r21
    437c:	46 2b       	or	r20, r22
    437e:	47 2b       	or	r20, r23
    4380:	99 f7       	brne	.-26     	; 0x4368 <_ZN7VL53L0X19setVcselPulsePeriodENS_15vcselPeriodTypeEh+0x51a>
    4382:	32 2f       	mov	r19, r18
    4384:	22 27       	eor	r18, r18
    4386:	82 2b       	or	r24, r18
    4388:	93 2b       	or	r25, r19
    438a:	4e ce       	rjmp	.-868    	; 0x4028 <_ZN7VL53L0X19setVcselPulsePeriodENS_15vcselPeriodTypeEh+0x1da>
    438c:	88 e0       	ldi	r24, 0x08	; 8
    438e:	78 12       	cpse	r7, r24
    4390:	e7 ce       	rjmp	.-562    	; 0x4160 <_ZN7VL53L0X19setVcselPulsePeriodENS_15vcselPeriodTypeEh+0x312>
    4392:	88 e4       	ldi	r24, 0x48	; 72
    4394:	66 96       	adiw	r28, 0x16	; 22
    4396:	8f af       	std	Y+63, r24	; 0x3f
    4398:	66 97       	sbiw	r28, 0x16	; 22
    439a:	80 e1       	ldi	r24, 0x10	; 16
    439c:	65 96       	adiw	r28, 0x15	; 21
    439e:	8f af       	std	Y+63, r24	; 0x3f
    43a0:	65 97       	sbiw	r28, 0x15	; 21
    43a2:	6c 8e       	std	Y+28, r6	; 0x1c
    43a4:	5e 01       	movw	r10, r28
    43a6:	bc e1       	ldi	r27, 0x1C	; 28
    43a8:	ab 0e       	add	r10, r27
    43aa:	b1 1c       	adc	r11, r1
    43ac:	8e 01       	movw	r16, r28
    43ae:	0c 5a       	subi	r16, 0xAC	; 172
    43b0:	1f 4f       	sbci	r17, 0xFF	; 255
    43b2:	95 01       	movw	r18, r10
    43b4:	ae 01       	movw	r20, r28
    43b6:	4b 5a       	subi	r20, 0xAB	; 171
    43b8:	5f 4f       	sbci	r21, 0xFF	; 255
    43ba:	b6 01       	movw	r22, r12
    43bc:	8c e3       	ldi	r24, 0x3C	; 60
    43be:	91 e0       	ldi	r25, 0x01	; 1
    43c0:	0e 94 4e 09 	call	0x129c	; 0x129c <_ZN3TWI5writeERKhS1_S1_PS0_>
    43c4:	f7 01       	movw	r30, r14
    43c6:	80 83       	st	Z, r24
    43c8:	87 e4       	ldi	r24, 0x47	; 71
    43ca:	68 96       	adiw	r28, 0x18	; 24
    43cc:	8f af       	std	Y+63, r24	; 0x3f
    43ce:	68 97       	sbiw	r28, 0x18	; 24
    43d0:	67 96       	adiw	r28, 0x17	; 23
    43d2:	7f ae       	std	Y+63, r7	; 0x3f
    43d4:	67 97       	sbiw	r28, 0x17	; 23
    43d6:	6c 8e       	std	Y+28, r6	; 0x1c
    43d8:	0e 5f       	subi	r16, 0xFE	; 254
    43da:	1f 4f       	sbci	r17, 0xFF	; 255
    43dc:	95 01       	movw	r18, r10
    43de:	ae 01       	movw	r20, r28
    43e0:	49 5a       	subi	r20, 0xA9	; 169
    43e2:	5f 4f       	sbci	r21, 0xFF	; 255
    43e4:	b6 01       	movw	r22, r12
    43e6:	8c e3       	ldi	r24, 0x3C	; 60
    43e8:	91 e0       	ldi	r25, 0x01	; 1
    43ea:	0e 94 4e 09 	call	0x129c	; 0x129c <_ZN3TWI5writeERKhS1_S1_PS0_>
    43ee:	d7 01       	movw	r26, r14
    43f0:	8c 93       	st	X, r24
    43f2:	82 e3       	ldi	r24, 0x32	; 50
    43f4:	6a 96       	adiw	r28, 0x1a	; 26
    43f6:	8f af       	std	Y+63, r24	; 0x3f
    43f8:	6a 97       	sbiw	r28, 0x1a	; 26
    43fa:	82 e0       	ldi	r24, 0x02	; 2
    43fc:	69 96       	adiw	r28, 0x19	; 25
    43fe:	8f af       	std	Y+63, r24	; 0x3f
    4400:	69 97       	sbiw	r28, 0x19	; 25
    4402:	6c 8e       	std	Y+28, r6	; 0x1c
    4404:	0e 5f       	subi	r16, 0xFE	; 254
    4406:	1f 4f       	sbci	r17, 0xFF	; 255
    4408:	95 01       	movw	r18, r10
    440a:	ae 01       	movw	r20, r28
    440c:	47 5a       	subi	r20, 0xA7	; 167
    440e:	5f 4f       	sbci	r21, 0xFF	; 255
    4410:	b6 01       	movw	r22, r12
    4412:	8c e3       	ldi	r24, 0x3C	; 60
    4414:	91 e0       	ldi	r25, 0x01	; 1
    4416:	0e 94 4e 09 	call	0x129c	; 0x129c <_ZN3TWI5writeERKhS1_S1_PS0_>
    441a:	f7 01       	movw	r30, r14
    441c:	80 83       	st	Z, r24
    441e:	a0 e3       	ldi	r26, 0x30	; 48
    4420:	4a 2e       	mov	r4, r26
    4422:	6c 96       	adiw	r28, 0x1c	; 28
    4424:	4f ae       	std	Y+63, r4	; 0x3f
    4426:	6c 97       	sbiw	r28, 0x1c	; 28
    4428:	8c e0       	ldi	r24, 0x0C	; 12
    442a:	6b 96       	adiw	r28, 0x1b	; 27
    442c:	8f af       	std	Y+63, r24	; 0x3f
    442e:	6b 97       	sbiw	r28, 0x1b	; 27
    4430:	6c 8e       	std	Y+28, r6	; 0x1c
    4432:	0e 5f       	subi	r16, 0xFE	; 254
    4434:	1f 4f       	sbci	r17, 0xFF	; 255
    4436:	95 01       	movw	r18, r10
    4438:	ae 01       	movw	r20, r28
    443a:	45 5a       	subi	r20, 0xA5	; 165
    443c:	5f 4f       	sbci	r21, 0xFF	; 255
    443e:	b6 01       	movw	r22, r12
    4440:	8c e3       	ldi	r24, 0x3C	; 60
    4442:	91 e0       	ldi	r25, 0x01	; 1
    4444:	0e 94 4e 09 	call	0x129c	; 0x129c <_ZN3TWI5writeERKhS1_S1_PS0_>
    4448:	d7 01       	movw	r26, r14
    444a:	8c 93       	st	X, r24
    444c:	99 24       	eor	r9, r9
    444e:	9a 94       	dec	r9
    4450:	6e 96       	adiw	r28, 0x1e	; 30
    4452:	9f ae       	std	Y+63, r9	; 0x3f
    4454:	6e 97       	sbiw	r28, 0x1e	; 30
    4456:	6d 96       	adiw	r28, 0x1d	; 29
    4458:	6f ae       	std	Y+63, r6	; 0x3f
    445a:	6d 97       	sbiw	r28, 0x1d	; 29
    445c:	6c 8e       	std	Y+28, r6	; 0x1c
    445e:	0e 5f       	subi	r16, 0xFE	; 254
    4460:	1f 4f       	sbci	r17, 0xFF	; 255
    4462:	95 01       	movw	r18, r10
    4464:	ae 01       	movw	r20, r28
    4466:	43 5a       	subi	r20, 0xA3	; 163
    4468:	5f 4f       	sbci	r21, 0xFF	; 255
    446a:	b6 01       	movw	r22, r12
    446c:	8c e3       	ldi	r24, 0x3C	; 60
    446e:	91 e0       	ldi	r25, 0x01	; 1
    4470:	0e 94 4e 09 	call	0x129c	; 0x129c <_ZN3TWI5writeERKhS1_S1_PS0_>
    4474:	f7 01       	movw	r30, r14
    4476:	80 83       	st	Z, r24
    4478:	a0 96       	adiw	r28, 0x20	; 32
    447a:	4f ae       	std	Y+63, r4	; 0x3f
    447c:	a0 97       	sbiw	r28, 0x20	; 32
    447e:	6f 96       	adiw	r28, 0x1f	; 31
    4480:	4f ae       	std	Y+63, r4	; 0x3f
    4482:	6f 97       	sbiw	r28, 0x1f	; 31
    4484:	6c 8e       	std	Y+28, r6	; 0x1c
    4486:	0e 5f       	subi	r16, 0xFE	; 254
    4488:	1f 4f       	sbci	r17, 0xFF	; 255
    448a:	95 01       	movw	r18, r10
    448c:	ae 01       	movw	r20, r28
    448e:	41 5a       	subi	r20, 0xA1	; 161
    4490:	5f 4f       	sbci	r21, 0xFF	; 255
    4492:	b6 01       	movw	r22, r12
    4494:	8c e3       	ldi	r24, 0x3C	; 60
    4496:	91 e0       	ldi	r25, 0x01	; 1
    4498:	0e 94 4e 09 	call	0x129c	; 0x129c <_ZN3TWI5writeERKhS1_S1_PS0_>
    449c:	d7 01       	movw	r26, r14
    449e:	8c 93       	st	X, r24
    44a0:	a2 96       	adiw	r28, 0x22	; 34
    44a2:	9f ae       	std	Y+63, r9	; 0x3f
    44a4:	a2 97       	sbiw	r28, 0x22	; 34
    44a6:	a1 96       	adiw	r28, 0x21	; 33
    44a8:	1f ae       	std	Y+63, r1	; 0x3f
    44aa:	a1 97       	sbiw	r28, 0x21	; 33
    44ac:	6c 8e       	std	Y+28, r6	; 0x1c
    44ae:	0e 5f       	subi	r16, 0xFE	; 254
    44b0:	1f 4f       	sbci	r17, 0xFF	; 255
    44b2:	95 01       	movw	r18, r10
    44b4:	ae 01       	movw	r20, r28
    44b6:	4f 59       	subi	r20, 0x9F	; 159
    44b8:	5f 4f       	sbci	r21, 0xFF	; 255
    44ba:	b6 01       	movw	r22, r12
    44bc:	8c e3       	ldi	r24, 0x3C	; 60
    44be:	91 e0       	ldi	r25, 0x01	; 1
    44c0:	0e 94 4e 09 	call	0x129c	; 0x129c <_ZN3TWI5writeERKhS1_S1_PS0_>
    44c4:	f7 01       	movw	r30, r14
    44c6:	80 83       	st	Z, r24
    44c8:	80 e7       	ldi	r24, 0x70	; 112
    44ca:	89 a7       	std	Y+41, r24	; 0x29
    44cc:	58 a6       	std	Y+40, r5	; 0x28
    44ce:	81 e0       	ldi	r24, 0x01	; 1
    44d0:	8c 8f       	std	Y+28, r24	; 0x1c
    44d2:	8e 01       	movw	r16, r28
    44d4:	08 5d       	subi	r16, 0xD8	; 216
    44d6:	1f 4f       	sbci	r17, 0xFF	; 255
    44d8:	95 01       	movw	r18, r10
    44da:	ae 01       	movw	r20, r28
    44dc:	47 5d       	subi	r20, 0xD7	; 215
    44de:	5f 4f       	sbci	r21, 0xFF	; 255
    44e0:	b6 01       	movw	r22, r12
    44e2:	8c e3       	ldi	r24, 0x3C	; 60
    44e4:	91 e0       	ldi	r25, 0x01	; 1
    44e6:	0e 94 4e 09 	call	0x129c	; 0x129c <_ZN3TWI5writeERKhS1_S1_PS0_>
    44ea:	f7 01       	movw	r30, r14
    44ec:	80 83       	st	Z, r24
    44ee:	a7 2d       	mov	r26, r7
    44f0:	b0 e0       	ldi	r27, 0x00	; 0
    44f2:	20 e0       	ldi	r18, 0x00	; 0
    44f4:	3f e2       	ldi	r19, 0x2F	; 47
    44f6:	4a e3       	ldi	r20, 0x3A	; 58
    44f8:	50 e0       	ldi	r21, 0x00	; 0
    44fa:	0e 94 6e 24 	call	0x48dc	; 0x48dc <__muluhisi3>
    44fe:	2b 01       	movw	r4, r22
    4500:	3c 01       	movw	r6, r24
    4502:	f4 ef       	ldi	r31, 0xF4	; 244
    4504:	4f 0e       	add	r4, r31
    4506:	f1 e0       	ldi	r31, 0x01	; 1
    4508:	5f 1e       	adc	r5, r31
    450a:	61 1c       	adc	r6, r1
    450c:	71 1c       	adc	r7, r1
    450e:	2b 89       	ldd	r18, Y+19	; 0x13
    4510:	3c 89       	ldd	r19, Y+20	; 0x14
    4512:	4d 89       	ldd	r20, Y+21	; 0x15
    4514:	5e 89       	ldd	r21, Y+22	; 0x16
    4516:	a8 ee       	ldi	r26, 0xE8	; 232
    4518:	b3 e0       	ldi	r27, 0x03	; 3
    451a:	0e 94 6e 24 	call	0x48dc	; 0x48dc <__muluhisi3>
    451e:	e5 96       	adiw	r28, 0x35	; 53
    4520:	6c af       	std	Y+60, r22	; 0x3c
    4522:	7d af       	std	Y+61, r23	; 0x3d
    4524:	8e af       	std	Y+62, r24	; 0x3e
    4526:	9f af       	std	Y+63, r25	; 0x3f
    4528:	e5 97       	sbiw	r28, 0x35	; 53
    452a:	c3 01       	movw	r24, r6
    452c:	b2 01       	movw	r22, r4
    452e:	20 ed       	ldi	r18, 0xD0	; 208
    4530:	37 e0       	ldi	r19, 0x07	; 7
    4532:	40 e0       	ldi	r20, 0x00	; 0
    4534:	50 e0       	ldi	r21, 0x00	; 0
    4536:	0e 94 46 24 	call	0x488c	; 0x488c <__udivmodsi4>
    453a:	e5 96       	adiw	r28, 0x35	; 53
    453c:	8c ad       	ldd	r24, Y+60	; 0x3c
    453e:	9d ad       	ldd	r25, Y+61	; 0x3d
    4540:	ae ad       	ldd	r26, Y+62	; 0x3e
    4542:	bf ad       	ldd	r27, Y+63	; 0x3f
    4544:	e5 97       	sbiw	r28, 0x35	; 53
    4546:	82 0f       	add	r24, r18
    4548:	93 1f       	adc	r25, r19
    454a:	a4 1f       	adc	r26, r20
    454c:	b5 1f       	adc	r27, r21
    454e:	e5 96       	adiw	r28, 0x35	; 53
    4550:	8c af       	std	Y+60, r24	; 0x3c
    4552:	9d af       	std	Y+61, r25	; 0x3d
    4554:	ae af       	std	Y+62, r26	; 0x3e
    4556:	bf af       	std	Y+63, r27	; 0x3f
    4558:	e5 97       	sbiw	r28, 0x35	; 53
    455a:	c3 01       	movw	r24, r6
    455c:	b2 01       	movw	r22, r4
    455e:	28 ee       	ldi	r18, 0xE8	; 232
    4560:	33 e0       	ldi	r19, 0x03	; 3
    4562:	40 e0       	ldi	r20, 0x00	; 0
    4564:	50 e0       	ldi	r21, 0x00	; 0
    4566:	0e 94 46 24 	call	0x488c	; 0x488c <__udivmodsi4>
    456a:	e5 96       	adiw	r28, 0x35	; 53
    456c:	6c ad       	ldd	r22, Y+60	; 0x3c
    456e:	7d ad       	ldd	r23, Y+61	; 0x3d
    4570:	8e ad       	ldd	r24, Y+62	; 0x3e
    4572:	9f ad       	ldd	r25, Y+63	; 0x3f
    4574:	e5 97       	sbiw	r28, 0x35	; 53
    4576:	0e 94 46 24 	call	0x488c	; 0x488c <__udivmodsi4>
    457a:	c9 01       	movw	r24, r18
    457c:	6a 8d       	ldd	r22, Y+26	; 0x1a
    457e:	66 23       	and	r22, r22
    4580:	21 f0       	breq	.+8      	; 0x458a <_ZN7VL53L0X19setVcselPulsePeriodENS_15vcselPeriodTypeEh+0x73c>
    4582:	8f 81       	ldd	r24, Y+7	; 0x07
    4584:	98 85       	ldd	r25, Y+8	; 0x08
    4586:	82 0f       	add	r24, r18
    4588:	93 1f       	adc	r25, r19
    458a:	00 97       	sbiw	r24, 0x00	; 0
    458c:	b9 f4       	brne	.+46     	; 0x45bc <_ZN7VL53L0X19setVcselPulsePeriodENS_15vcselPeriodTypeEh+0x76e>
    458e:	80 e0       	ldi	r24, 0x00	; 0
    4590:	90 e0       	ldi	r25, 0x00	; 0
    4592:	21 e7       	ldi	r18, 0x71	; 113
    4594:	2f a3       	std	Y+39, r18	; 0x27
    4596:	9d 8f       	std	Y+29, r25	; 0x1d
    4598:	8c 8f       	std	Y+28, r24	; 0x1c
    459a:	82 e0       	ldi	r24, 0x02	; 2
    459c:	8e 8f       	std	Y+30, r24	; 0x1e
    459e:	85 01       	movw	r16, r10
    45a0:	9e 01       	movw	r18, r28
    45a2:	22 5e       	subi	r18, 0xE2	; 226
    45a4:	3f 4f       	sbci	r19, 0xFF	; 255
    45a6:	ae 01       	movw	r20, r28
    45a8:	49 5d       	subi	r20, 0xD9	; 217
    45aa:	5f 4f       	sbci	r21, 0xFF	; 255
    45ac:	b6 01       	movw	r22, r12
    45ae:	8c e3       	ldi	r24, 0x3C	; 60
    45b0:	91 e0       	ldi	r25, 0x01	; 1
    45b2:	0e 94 4e 09 	call	0x129c	; 0x129c <_ZN3TWI5writeERKhS1_S1_PS0_>
    45b6:	d7 01       	movw	r26, r14
    45b8:	8c 93       	st	X, r24
    45ba:	7d cd       	rjmp	.-1286   	; 0x40b6 <_ZN7VL53L0X19setVcselPulsePeriodENS_15vcselPeriodTypeEh+0x268>
    45bc:	01 97       	sbiw	r24, 0x01	; 1
    45be:	a0 e0       	ldi	r26, 0x00	; 0
    45c0:	b0 e0       	ldi	r27, 0x00	; 0
    45c2:	ac 01       	movw	r20, r24
    45c4:	bd 01       	movw	r22, r26
    45c6:	44 27       	eor	r20, r20
    45c8:	20 e0       	ldi	r18, 0x00	; 0
    45ca:	30 e0       	ldi	r19, 0x00	; 0
    45cc:	45 2b       	or	r20, r21
    45ce:	46 2b       	or	r20, r22
    45d0:	47 2b       	or	r20, r23
    45d2:	79 f0       	breq	.+30     	; 0x45f2 <_ZN7VL53L0X19setVcselPulsePeriodENS_15vcselPeriodTypeEh+0x7a4>
    45d4:	b6 95       	lsr	r27
    45d6:	a7 95       	ror	r26
    45d8:	97 95       	ror	r25
    45da:	87 95       	ror	r24
    45dc:	2f 5f       	subi	r18, 0xFF	; 255
    45de:	3f 4f       	sbci	r19, 0xFF	; 255
    45e0:	ac 01       	movw	r20, r24
    45e2:	bd 01       	movw	r22, r26
    45e4:	44 27       	eor	r20, r20
    45e6:	45 2b       	or	r20, r21
    45e8:	46 2b       	or	r20, r22
    45ea:	47 2b       	or	r20, r23
    45ec:	99 f7       	brne	.-26     	; 0x45d4 <_ZN7VL53L0X19setVcselPulsePeriodENS_15vcselPeriodTypeEh+0x786>
    45ee:	32 2f       	mov	r19, r18
    45f0:	22 27       	eor	r18, r18
    45f2:	82 2b       	or	r24, r18
    45f4:	93 2b       	or	r25, r19
    45f6:	cd cf       	rjmp	.-102    	; 0x4592 <_ZN7VL53L0X19setVcselPulsePeriodENS_15vcselPeriodTypeEh+0x744>
    45f8:	88 e4       	ldi	r24, 0x48	; 72
    45fa:	89 af       	std	Y+57, r24	; 0x39
    45fc:	88 e3       	ldi	r24, 0x38	; 56
    45fe:	88 af       	std	Y+56, r24	; 0x38
    4600:	6c 8e       	std	Y+28, r6	; 0x1c
    4602:	5e 01       	movw	r10, r28
    4604:	bc e1       	ldi	r27, 0x1C	; 28
    4606:	ab 0e       	add	r10, r27
    4608:	b1 1c       	adc	r11, r1
    460a:	8e 01       	movw	r16, r28
    460c:	08 5c       	subi	r16, 0xC8	; 200
    460e:	1f 4f       	sbci	r17, 0xFF	; 255
    4610:	95 01       	movw	r18, r10
    4612:	ae 01       	movw	r20, r28
    4614:	47 5c       	subi	r20, 0xC7	; 199
    4616:	5f 4f       	sbci	r21, 0xFF	; 255
    4618:	b6 01       	movw	r22, r12
    461a:	8c e3       	ldi	r24, 0x3C	; 60
    461c:	91 e0       	ldi	r25, 0x01	; 1
    461e:	0e 94 4e 09 	call	0x129c	; 0x129c <_ZN3TWI5writeERKhS1_S1_PS0_>
    4622:	f7 01       	movw	r30, r14
    4624:	80 83       	st	Z, r24
    4626:	87 e4       	ldi	r24, 0x47	; 71
    4628:	8b af       	std	Y+59, r24	; 0x3b
    462a:	78 e0       	ldi	r23, 0x08	; 8
    462c:	97 2e       	mov	r9, r23
    462e:	9a ae       	std	Y+58, r9	; 0x3a
    4630:	6c 8e       	std	Y+28, r6	; 0x1c
    4632:	0e 5f       	subi	r16, 0xFE	; 254
    4634:	1f 4f       	sbci	r17, 0xFF	; 255
    4636:	95 01       	movw	r18, r10
    4638:	ae 01       	movw	r20, r28
    463a:	45 5c       	subi	r20, 0xC5	; 197
    463c:	5f 4f       	sbci	r21, 0xFF	; 255
    463e:	b6 01       	movw	r22, r12
    4640:	8c e3       	ldi	r24, 0x3C	; 60
    4642:	91 e0       	ldi	r25, 0x01	; 1
    4644:	0e 94 4e 09 	call	0x129c	; 0x129c <_ZN3TWI5writeERKhS1_S1_PS0_>
    4648:	d7 01       	movw	r26, r14
    464a:	8c 93       	st	X, r24
    464c:	82 e3       	ldi	r24, 0x32	; 50
    464e:	8d af       	std	Y+61, r24	; 0x3d
    4650:	83 e0       	ldi	r24, 0x03	; 3
    4652:	8c af       	std	Y+60, r24	; 0x3c
    4654:	6c 8e       	std	Y+28, r6	; 0x1c
    4656:	0e 5f       	subi	r16, 0xFE	; 254
    4658:	1f 4f       	sbci	r17, 0xFF	; 255
    465a:	95 01       	movw	r18, r10
    465c:	ae 01       	movw	r20, r28
    465e:	43 5c       	subi	r20, 0xC3	; 195
    4660:	5f 4f       	sbci	r21, 0xFF	; 255
    4662:	b6 01       	movw	r22, r12
    4664:	8c e3       	ldi	r24, 0x3C	; 60
    4666:	91 e0       	ldi	r25, 0x01	; 1
    4668:	0e 94 4e 09 	call	0x129c	; 0x129c <_ZN3TWI5writeERKhS1_S1_PS0_>
    466c:	f7 01       	movw	r30, r14
    466e:	80 83       	st	Z, r24
    4670:	e0 e3       	ldi	r30, 0x30	; 48
    4672:	4e 2e       	mov	r4, r30
    4674:	4f ae       	std	Y+63, r4	; 0x3f
    4676:	9e ae       	std	Y+62, r9	; 0x3e
    4678:	6c 8e       	std	Y+28, r6	; 0x1c
    467a:	0e 5f       	subi	r16, 0xFE	; 254
    467c:	1f 4f       	sbci	r17, 0xFF	; 255
    467e:	95 01       	movw	r18, r10
    4680:	ae 01       	movw	r20, r28
    4682:	41 5c       	subi	r20, 0xC1	; 193
    4684:	5f 4f       	sbci	r21, 0xFF	; 255
    4686:	b6 01       	movw	r22, r12
    4688:	8c e3       	ldi	r24, 0x3C	; 60
    468a:	91 e0       	ldi	r25, 0x01	; 1
    468c:	0e 94 4e 09 	call	0x129c	; 0x129c <_ZN3TWI5writeERKhS1_S1_PS0_>
    4690:	d7 01       	movw	r26, r14
    4692:	8c 93       	st	X, r24
    4694:	99 24       	eor	r9, r9
    4696:	9a 94       	dec	r9
    4698:	22 96       	adiw	r28, 0x02	; 2
    469a:	9f ae       	std	Y+63, r9	; 0x3f
    469c:	22 97       	sbiw	r28, 0x02	; 2
    469e:	21 96       	adiw	r28, 0x01	; 1
    46a0:	6f ae       	std	Y+63, r6	; 0x3f
    46a2:	21 97       	sbiw	r28, 0x01	; 1
    46a4:	6c 8e       	std	Y+28, r6	; 0x1c
    46a6:	0e 5f       	subi	r16, 0xFE	; 254
    46a8:	1f 4f       	sbci	r17, 0xFF	; 255
    46aa:	95 01       	movw	r18, r10
    46ac:	ae 01       	movw	r20, r28
    46ae:	4f 5b       	subi	r20, 0xBF	; 191
    46b0:	5f 4f       	sbci	r21, 0xFF	; 255
    46b2:	b6 01       	movw	r22, r12
    46b4:	8c e3       	ldi	r24, 0x3C	; 60
    46b6:	91 e0       	ldi	r25, 0x01	; 1
    46b8:	0e 94 4e 09 	call	0x129c	; 0x129c <_ZN3TWI5writeERKhS1_S1_PS0_>
    46bc:	f7 01       	movw	r30, r14
    46be:	80 83       	st	Z, r24
    46c0:	24 96       	adiw	r28, 0x04	; 4
    46c2:	4f ae       	std	Y+63, r4	; 0x3f
    46c4:	24 97       	sbiw	r28, 0x04	; 4
    46c6:	80 e2       	ldi	r24, 0x20	; 32
    46c8:	23 96       	adiw	r28, 0x03	; 3
    46ca:	8f af       	std	Y+63, r24	; 0x3f
    46cc:	23 97       	sbiw	r28, 0x03	; 3
    46ce:	6c 8e       	std	Y+28, r6	; 0x1c
    46d0:	0e 5f       	subi	r16, 0xFE	; 254
    46d2:	1f 4f       	sbci	r17, 0xFF	; 255
    46d4:	95 01       	movw	r18, r10
    46d6:	ae 01       	movw	r20, r28
    46d8:	4d 5b       	subi	r20, 0xBD	; 189
    46da:	5f 4f       	sbci	r21, 0xFF	; 255
    46dc:	b6 01       	movw	r22, r12
    46de:	8c e3       	ldi	r24, 0x3C	; 60
    46e0:	91 e0       	ldi	r25, 0x01	; 1
    46e2:	0e 94 4e 09 	call	0x129c	; 0x129c <_ZN3TWI5writeERKhS1_S1_PS0_>
    46e6:	d7 01       	movw	r26, r14
    46e8:	8c 93       	st	X, r24
    46ea:	26 96       	adiw	r28, 0x06	; 6
    46ec:	9f ae       	std	Y+63, r9	; 0x3f
    46ee:	26 97       	sbiw	r28, 0x06	; 6
    46f0:	25 96       	adiw	r28, 0x05	; 5
    46f2:	1f ae       	std	Y+63, r1	; 0x3f
    46f4:	25 97       	sbiw	r28, 0x05	; 5
    46f6:	6c 8e       	std	Y+28, r6	; 0x1c
    46f8:	0e 5f       	subi	r16, 0xFE	; 254
    46fa:	1f 4f       	sbci	r17, 0xFF	; 255
    46fc:	95 01       	movw	r18, r10
    46fe:	ae 01       	movw	r20, r28
    4700:	4b 5b       	subi	r20, 0xBB	; 187
    4702:	5f 4f       	sbci	r21, 0xFF	; 255
    4704:	da ce       	rjmp	.-588    	; 0x44ba <_ZN7VL53L0X19setVcselPulsePeriodENS_15vcselPeriodTypeEh+0x66c>
    4706:	88 e4       	ldi	r24, 0x48	; 72
    4708:	28 96       	adiw	r28, 0x08	; 8
    470a:	8f af       	std	Y+63, r24	; 0x3f
    470c:	28 97       	sbiw	r28, 0x08	; 8
    470e:	88 e2       	ldi	r24, 0x28	; 40
    4710:	27 96       	adiw	r28, 0x07	; 7
    4712:	8f af       	std	Y+63, r24	; 0x3f
    4714:	27 97       	sbiw	r28, 0x07	; 7
    4716:	6c 8e       	std	Y+28, r6	; 0x1c
    4718:	5e 01       	movw	r10, r28
    471a:	fc e1       	ldi	r31, 0x1C	; 28
    471c:	af 0e       	add	r10, r31
    471e:	b1 1c       	adc	r11, r1
    4720:	8e 01       	movw	r16, r28
    4722:	0a 5b       	subi	r16, 0xBA	; 186
    4724:	1f 4f       	sbci	r17, 0xFF	; 255
    4726:	95 01       	movw	r18, r10
    4728:	ae 01       	movw	r20, r28
    472a:	49 5b       	subi	r20, 0xB9	; 185
    472c:	5f 4f       	sbci	r21, 0xFF	; 255
    472e:	b6 01       	movw	r22, r12
    4730:	8c e3       	ldi	r24, 0x3C	; 60
    4732:	91 e0       	ldi	r25, 0x01	; 1
    4734:	0e 94 4e 09 	call	0x129c	; 0x129c <_ZN3TWI5writeERKhS1_S1_PS0_>
    4738:	d7 01       	movw	r26, r14
    473a:	8c 93       	st	X, r24
    473c:	87 e4       	ldi	r24, 0x47	; 71
    473e:	2a 96       	adiw	r28, 0x0a	; 10
    4740:	8f af       	std	Y+63, r24	; 0x3f
    4742:	2a 97       	sbiw	r28, 0x0a	; 10
    4744:	88 e0       	ldi	r24, 0x08	; 8
    4746:	29 96       	adiw	r28, 0x09	; 9
    4748:	8f af       	std	Y+63, r24	; 0x3f
    474a:	29 97       	sbiw	r28, 0x09	; 9
    474c:	6c 8e       	std	Y+28, r6	; 0x1c
    474e:	0e 5f       	subi	r16, 0xFE	; 254
    4750:	1f 4f       	sbci	r17, 0xFF	; 255
    4752:	95 01       	movw	r18, r10
    4754:	ae 01       	movw	r20, r28
    4756:	47 5b       	subi	r20, 0xB7	; 183
    4758:	5f 4f       	sbci	r21, 0xFF	; 255
    475a:	b6 01       	movw	r22, r12
    475c:	8c e3       	ldi	r24, 0x3C	; 60
    475e:	91 e0       	ldi	r25, 0x01	; 1
    4760:	0e 94 4e 09 	call	0x129c	; 0x129c <_ZN3TWI5writeERKhS1_S1_PS0_>
    4764:	f7 01       	movw	r30, r14
    4766:	80 83       	st	Z, r24
    4768:	82 e3       	ldi	r24, 0x32	; 50
    476a:	2c 96       	adiw	r28, 0x0c	; 12
    476c:	8f af       	std	Y+63, r24	; 0x3f
    476e:	2c 97       	sbiw	r28, 0x0c	; 12
    4770:	83 e0       	ldi	r24, 0x03	; 3
    4772:	2b 96       	adiw	r28, 0x0b	; 11
    4774:	8f af       	std	Y+63, r24	; 0x3f
    4776:	2b 97       	sbiw	r28, 0x0b	; 11
    4778:	6c 8e       	std	Y+28, r6	; 0x1c
    477a:	0e 5f       	subi	r16, 0xFE	; 254
    477c:	1f 4f       	sbci	r17, 0xFF	; 255
    477e:	95 01       	movw	r18, r10
    4780:	ae 01       	movw	r20, r28
    4782:	45 5b       	subi	r20, 0xB5	; 181
    4784:	5f 4f       	sbci	r21, 0xFF	; 255
    4786:	b6 01       	movw	r22, r12
    4788:	8c e3       	ldi	r24, 0x3C	; 60
    478a:	91 e0       	ldi	r25, 0x01	; 1
    478c:	0e 94 4e 09 	call	0x129c	; 0x129c <_ZN3TWI5writeERKhS1_S1_PS0_>
    4790:	d7 01       	movw	r26, r14
    4792:	8c 93       	st	X, r24
    4794:	f0 e3       	ldi	r31, 0x30	; 48
    4796:	4f 2e       	mov	r4, r31
    4798:	2e 96       	adiw	r28, 0x0e	; 14
    479a:	4f ae       	std	Y+63, r4	; 0x3f
    479c:	2e 97       	sbiw	r28, 0x0e	; 14
    479e:	89 e0       	ldi	r24, 0x09	; 9
    47a0:	2d 96       	adiw	r28, 0x0d	; 13
    47a2:	8f af       	std	Y+63, r24	; 0x3f
    47a4:	2d 97       	sbiw	r28, 0x0d	; 13
    47a6:	6c 8e       	std	Y+28, r6	; 0x1c
    47a8:	0e 5f       	subi	r16, 0xFE	; 254
    47aa:	1f 4f       	sbci	r17, 0xFF	; 255
    47ac:	95 01       	movw	r18, r10
    47ae:	ae 01       	movw	r20, r28
    47b0:	43 5b       	subi	r20, 0xB3	; 179
    47b2:	5f 4f       	sbci	r21, 0xFF	; 255
    47b4:	b6 01       	movw	r22, r12
    47b6:	8c e3       	ldi	r24, 0x3C	; 60
    47b8:	91 e0       	ldi	r25, 0x01	; 1
    47ba:	0e 94 4e 09 	call	0x129c	; 0x129c <_ZN3TWI5writeERKhS1_S1_PS0_>
    47be:	f7 01       	movw	r30, r14
    47c0:	80 83       	st	Z, r24
    47c2:	99 24       	eor	r9, r9
    47c4:	9a 94       	dec	r9
    47c6:	60 96       	adiw	r28, 0x10	; 16
    47c8:	9f ae       	std	Y+63, r9	; 0x3f
    47ca:	60 97       	sbiw	r28, 0x10	; 16
    47cc:	2f 96       	adiw	r28, 0x0f	; 15
    47ce:	6f ae       	std	Y+63, r6	; 0x3f
    47d0:	2f 97       	sbiw	r28, 0x0f	; 15
    47d2:	6c 8e       	std	Y+28, r6	; 0x1c
    47d4:	0e 5f       	subi	r16, 0xFE	; 254
    47d6:	1f 4f       	sbci	r17, 0xFF	; 255
    47d8:	95 01       	movw	r18, r10
    47da:	ae 01       	movw	r20, r28
    47dc:	41 5b       	subi	r20, 0xB1	; 177
    47de:	5f 4f       	sbci	r21, 0xFF	; 255
    47e0:	b6 01       	movw	r22, r12
    47e2:	8c e3       	ldi	r24, 0x3C	; 60
    47e4:	91 e0       	ldi	r25, 0x01	; 1
    47e6:	0e 94 4e 09 	call	0x129c	; 0x129c <_ZN3TWI5writeERKhS1_S1_PS0_>
    47ea:	d7 01       	movw	r26, r14
    47ec:	8c 93       	st	X, r24
    47ee:	62 96       	adiw	r28, 0x12	; 18
    47f0:	4f ae       	std	Y+63, r4	; 0x3f
    47f2:	62 97       	sbiw	r28, 0x12	; 18
    47f4:	80 e2       	ldi	r24, 0x20	; 32
    47f6:	61 96       	adiw	r28, 0x11	; 17
    47f8:	8f af       	std	Y+63, r24	; 0x3f
    47fa:	61 97       	sbiw	r28, 0x11	; 17
    47fc:	6c 8e       	std	Y+28, r6	; 0x1c
    47fe:	0e 5f       	subi	r16, 0xFE	; 254
    4800:	1f 4f       	sbci	r17, 0xFF	; 255
    4802:	95 01       	movw	r18, r10
    4804:	ae 01       	movw	r20, r28
    4806:	4f 5a       	subi	r20, 0xAF	; 175
    4808:	5f 4f       	sbci	r21, 0xFF	; 255
    480a:	b6 01       	movw	r22, r12
    480c:	8c e3       	ldi	r24, 0x3C	; 60
    480e:	91 e0       	ldi	r25, 0x01	; 1
    4810:	0e 94 4e 09 	call	0x129c	; 0x129c <_ZN3TWI5writeERKhS1_S1_PS0_>
    4814:	f7 01       	movw	r30, r14
    4816:	80 83       	st	Z, r24
    4818:	64 96       	adiw	r28, 0x14	; 20
    481a:	9f ae       	std	Y+63, r9	; 0x3f
    481c:	64 97       	sbiw	r28, 0x14	; 20
    481e:	63 96       	adiw	r28, 0x13	; 19
    4820:	1f ae       	std	Y+63, r1	; 0x3f
    4822:	63 97       	sbiw	r28, 0x13	; 19
    4824:	6c 8e       	std	Y+28, r6	; 0x1c
    4826:	0e 5f       	subi	r16, 0xFE	; 254
    4828:	1f 4f       	sbci	r17, 0xFF	; 255
    482a:	95 01       	movw	r18, r10
    482c:	ae 01       	movw	r20, r28
    482e:	4d 5a       	subi	r20, 0xAD	; 173
    4830:	5f 4f       	sbci	r21, 0xFF	; 255
    4832:	35 cd       	rjmp	.-1430   	; 0x429e <_ZN7VL53L0X19setVcselPulsePeriodENS_15vcselPeriodTypeEh+0x450>

00004834 <_ZN8WatchdogC1Eh>:
    4834:	fc 01       	movw	r30, r24
    4836:	60 83       	st	Z, r22
    4838:	f8 94       	cli
    483a:	a8 95       	wdr
    483c:	84 b7       	in	r24, 0x34	; 52
    483e:	87 7f       	andi	r24, 0xF7	; 247
    4840:	84 bf       	out	0x34, r24	; 52
    4842:	e0 e6       	ldi	r30, 0x60	; 96
    4844:	f0 e0       	ldi	r31, 0x00	; 0
    4846:	80 81       	ld	r24, Z
    4848:	88 61       	ori	r24, 0x18	; 24
    484a:	80 83       	st	Z, r24
    484c:	10 82       	st	Z, r1
    484e:	78 94       	sei
    4850:	08 95       	ret

00004852 <_ZN8Watchdog3offEv>:
    4852:	f8 94       	cli
    4854:	a8 95       	wdr
    4856:	84 b7       	in	r24, 0x34	; 52
    4858:	87 7f       	andi	r24, 0xF7	; 247
    485a:	84 bf       	out	0x34, r24	; 52
    485c:	e0 e6       	ldi	r30, 0x60	; 96
    485e:	f0 e0       	ldi	r31, 0x00	; 0
    4860:	80 81       	ld	r24, Z
    4862:	88 61       	ori	r24, 0x18	; 24
    4864:	80 83       	st	Z, r24
    4866:	10 82       	st	Z, r1
    4868:	78 94       	sei
    486a:	08 95       	ret

0000486c <_ZN8Watchdog2onEv>:
    486c:	dc 01       	movw	r26, r24
    486e:	f8 94       	cli
    4870:	a8 95       	wdr
    4872:	94 b7       	in	r25, 0x34	; 52
    4874:	97 7f       	andi	r25, 0xF7	; 247
    4876:	94 bf       	out	0x34, r25	; 52
    4878:	e0 e6       	ldi	r30, 0x60	; 96
    487a:	f0 e0       	ldi	r31, 0x00	; 0
    487c:	90 81       	ld	r25, Z
    487e:	98 61       	ori	r25, 0x18	; 24
    4880:	90 83       	st	Z, r25
    4882:	8c 91       	ld	r24, X
    4884:	88 60       	ori	r24, 0x08	; 8
    4886:	80 83       	st	Z, r24
    4888:	78 94       	sei
    488a:	08 95       	ret

0000488c <__udivmodsi4>:
    488c:	a1 e2       	ldi	r26, 0x21	; 33
    488e:	1a 2e       	mov	r1, r26
    4890:	aa 1b       	sub	r26, r26
    4892:	bb 1b       	sub	r27, r27
    4894:	fd 01       	movw	r30, r26
    4896:	0d c0       	rjmp	.+26     	; 0x48b2 <__udivmodsi4_ep>

00004898 <__udivmodsi4_loop>:
    4898:	aa 1f       	adc	r26, r26
    489a:	bb 1f       	adc	r27, r27
    489c:	ee 1f       	adc	r30, r30
    489e:	ff 1f       	adc	r31, r31
    48a0:	a2 17       	cp	r26, r18
    48a2:	b3 07       	cpc	r27, r19
    48a4:	e4 07       	cpc	r30, r20
    48a6:	f5 07       	cpc	r31, r21
    48a8:	20 f0       	brcs	.+8      	; 0x48b2 <__udivmodsi4_ep>
    48aa:	a2 1b       	sub	r26, r18
    48ac:	b3 0b       	sbc	r27, r19
    48ae:	e4 0b       	sbc	r30, r20
    48b0:	f5 0b       	sbc	r31, r21

000048b2 <__udivmodsi4_ep>:
    48b2:	66 1f       	adc	r22, r22
    48b4:	77 1f       	adc	r23, r23
    48b6:	88 1f       	adc	r24, r24
    48b8:	99 1f       	adc	r25, r25
    48ba:	1a 94       	dec	r1
    48bc:	69 f7       	brne	.-38     	; 0x4898 <__udivmodsi4_loop>
    48be:	60 95       	com	r22
    48c0:	70 95       	com	r23
    48c2:	80 95       	com	r24
    48c4:	90 95       	com	r25
    48c6:	9b 01       	movw	r18, r22
    48c8:	ac 01       	movw	r20, r24
    48ca:	bd 01       	movw	r22, r26
    48cc:	cf 01       	movw	r24, r30
    48ce:	08 95       	ret

000048d0 <__tablejump2__>:
    48d0:	ee 0f       	add	r30, r30
    48d2:	ff 1f       	adc	r31, r31
    48d4:	05 90       	lpm	r0, Z+
    48d6:	f4 91       	lpm	r31, Z
    48d8:	e0 2d       	mov	r30, r0
    48da:	09 94       	ijmp

000048dc <__muluhisi3>:
    48dc:	0e 94 81 24 	call	0x4902	; 0x4902 <__umulhisi3>
    48e0:	a5 9f       	mul	r26, r21
    48e2:	90 0d       	add	r25, r0
    48e4:	b4 9f       	mul	r27, r20
    48e6:	90 0d       	add	r25, r0
    48e8:	a4 9f       	mul	r26, r20
    48ea:	80 0d       	add	r24, r0
    48ec:	91 1d       	adc	r25, r1
    48ee:	11 24       	eor	r1, r1
    48f0:	08 95       	ret

000048f2 <__mulshisi3>:
    48f2:	b7 ff       	sbrs	r27, 7
    48f4:	0c 94 6e 24 	jmp	0x48dc	; 0x48dc <__muluhisi3>

000048f8 <__mulohisi3>:
    48f8:	0e 94 6e 24 	call	0x48dc	; 0x48dc <__muluhisi3>
    48fc:	82 1b       	sub	r24, r18
    48fe:	93 0b       	sbc	r25, r19
    4900:	08 95       	ret

00004902 <__umulhisi3>:
    4902:	a2 9f       	mul	r26, r18
    4904:	b0 01       	movw	r22, r0
    4906:	b3 9f       	mul	r27, r19
    4908:	c0 01       	movw	r24, r0
    490a:	a3 9f       	mul	r26, r19
    490c:	70 0d       	add	r23, r0
    490e:	81 1d       	adc	r24, r1
    4910:	11 24       	eor	r1, r1
    4912:	91 1d       	adc	r25, r1
    4914:	b2 9f       	mul	r27, r18
    4916:	70 0d       	add	r23, r0
    4918:	81 1d       	adc	r24, r1
    491a:	11 24       	eor	r1, r1
    491c:	91 1d       	adc	r25, r1
    491e:	08 95       	ret

00004920 <eeprom_read_byte>:
    4920:	f9 99       	sbic	0x1f, 1	; 31
    4922:	fe cf       	rjmp	.-4      	; 0x4920 <eeprom_read_byte>
    4924:	92 bd       	out	0x22, r25	; 34
    4926:	81 bd       	out	0x21, r24	; 33
    4928:	f8 9a       	sbi	0x1f, 0	; 31
    492a:	99 27       	eor	r25, r25
    492c:	80 b5       	in	r24, 0x20	; 32
    492e:	08 95       	ret

00004930 <eeprom_update_byte>:
    4930:	26 2f       	mov	r18, r22

00004932 <eeprom_update_r18>:
    4932:	f9 99       	sbic	0x1f, 1	; 31
    4934:	fe cf       	rjmp	.-4      	; 0x4932 <eeprom_update_r18>
    4936:	92 bd       	out	0x22, r25	; 34
    4938:	81 bd       	out	0x21, r24	; 33
    493a:	f8 9a       	sbi	0x1f, 0	; 31
    493c:	01 97       	sbiw	r24, 0x01	; 1
    493e:	00 b4       	in	r0, 0x20	; 32
    4940:	02 16       	cp	r0, r18
    4942:	39 f0       	breq	.+14     	; 0x4952 <eeprom_update_r18+0x20>
    4944:	1f ba       	out	0x1f, r1	; 31
    4946:	20 bd       	out	0x20, r18	; 32
    4948:	0f b6       	in	r0, 0x3f	; 63
    494a:	f8 94       	cli
    494c:	fa 9a       	sbi	0x1f, 2	; 31
    494e:	f9 9a       	sbi	0x1f, 1	; 31
    4950:	0f be       	out	0x3f, r0	; 63
    4952:	08 95       	ret

00004954 <_exit>:
    4954:	f8 94       	cli

00004956 <__stop_program>:
    4956:	ff cf       	rjmp	.-2      	; 0x4956 <__stop_program>
